################################################################################
#                                                                              #
#      IAR Universal Linker V6.5.0.91                                          #
#                                                                              #
#           Link time     =  27/Sep/2020  14:59:03                             #
#           Target CPU    =  MAXQ                                              #
#           List file     =  D:\Projects\Coset\Project_SKT_SFP28_T_2020\3.SW\F #
#                            W\SFP28_ER_V1_DML_APD\Debug\List\SFP28_ER_V1_DML_ #
#                            APD_200927_a.map                                  #
#           Output file 1 =  D:\Projects\Coset\Project_SKT_SFP28_T_2020\3.SW\F #
#                            W\SFP28_ER_V1_DML_APD\Debug\Exe\SFP28_ER_V1_DML_A #
#                            PD_200927_a.hex                                   #
#                            Format: intel-standard                            #
#           Command line  =  D:\Projects\Coset\Project_SKT_SFP28_T_2020\3.SW\F #
#                            W\SFP28_ER_V1_DML_APD\Debug\Obj\Q20_floatMACLIB_i #
#                            eee754.r66                                        #
#                            D:\Projects\Coset\Project_SKT_SFP28_T_2020\3.SW\F #
#                            W\SFP28_ER_V1_DML_APD\Debug\Obj\adc.r66           #
#                            D:\Projects\Coset\Project_SKT_SFP28_T_2020\3.SW\F #
#                            W\SFP28_ER_V1_DML_APD\Debug\Obj\alarm_warning.r66 #
#                            D:\Projects\Coset\Project_SKT_SFP28_T_2020\3.SW\F #
#                            W\SFP28_ER_V1_DML_APD\Debug\Obj\board.r66         #
#                            D:\Projects\Coset\Project_SKT_SFP28_T_2020\3.SW\F #
#                            W\SFP28_ER_V1_DML_APD\Debug\Obj\dc_dc.r66         #
#                            D:\Projects\Coset\Project_SKT_SFP28_T_2020\3.SW\F #
#                            W\SFP28_ER_V1_DML_APD\Debug\Obj\ddm.r66           #
#                            D:\Projects\Coset\Project_SKT_SFP28_T_2020\3.SW\F #
#                            W\SFP28_ER_V1_DML_APD\Debug\Obj\ds_dac.r66        #
#                            D:\Projects\Coset\Project_SKT_SFP28_T_2020\3.SW\F #
#                            W\SFP28_ER_V1_DML_APD\Debug\Obj\flash.r66         #
#                            D:\Projects\Coset\Project_SKT_SFP28_T_2020\3.SW\F #
#                            W\SFP28_ER_V1_DML_APD\Debug\Obj\flash_asm.r66     #
#                            D:\Projects\Coset\Project_SKT_SFP28_T_2020\3.SW\F #
#                            W\SFP28_ER_V1_DML_APD\Debug\Obj\hwmul.r66         #
#                            D:\Projects\Coset\Project_SKT_SFP28_T_2020\3.SW\F #
#                            W\SFP28_ER_V1_DML_APD\Debug\Obj\i2c_master_gpio.r #
#                            66                                                #
#                            D:\Projects\Coset\Project_SKT_SFP28_T_2020\3.SW\F #
#                            W\SFP28_ER_V1_DML_APD\Debug\Obj\i2cm.r66          #
#                            D:\Projects\Coset\Project_SKT_SFP28_T_2020\3.SW\F #
#                            W\SFP28_ER_V1_DML_APD\Debug\Obj\i2cs_asm.r66      #
#                            D:\Projects\Coset\Project_SKT_SFP28_T_2020\3.SW\F #
#                            W\SFP28_ER_V1_DML_APD\Debug\Obj\i2cslave.r66      #
#                            D:\Projects\Coset\Project_SKT_SFP28_T_2020\3.SW\F #
#                            W\SFP28_ER_V1_DML_APD\Debug\Obj\initialization.r6 #
#                            6                                                 #
#                            D:\Projects\Coset\Project_SKT_SFP28_T_2020\3.SW\F #
#                            W\SFP28_ER_V1_DML_APD\Debug\Obj\isr.r66           #
#                            D:\Projects\Coset\Project_SKT_SFP28_T_2020\3.SW\F #
#                            W\SFP28_ER_V1_DML_APD\Debug\Obj\lowinit.r66       #
#                            D:\Projects\Coset\Project_SKT_SFP28_T_2020\3.SW\F #
#                            W\SFP28_ER_V1_DML_APD\Debug\Obj\main.r66          #
#                            D:\Projects\Coset\Project_SKT_SFP28_T_2020\3.SW\F #
#                            W\SFP28_ER_V1_DML_APD\Debug\Obj\mcu_convert.r66   #
#                            D:\Projects\Coset\Project_SKT_SFP28_T_2020\3.SW\F #
#                            W\SFP28_ER_V1_DML_APD\Debug\Obj\memory_access.r66 #
#                            D:\Projects\Coset\Project_SKT_SFP28_T_2020\3.SW\F #
#                            W\SFP28_ER_V1_DML_APD\Debug\Obj\monitor.r66       #
#                            D:\Projects\Coset\Project_SKT_SFP28_T_2020\3.SW\F #
#                            W\SFP28_ER_V1_DML_APD\Debug\Obj\pwm.r66           #
#                            D:\Projects\Coset\Project_SKT_SFP28_T_2020\3.SW\F #
#                            W\SFP28_ER_V1_DML_APD\Debug\Obj\state_transition. #
#                            r66                                               #
#                            D:\Projects\Coset\Project_SKT_SFP28_T_2020\3.SW\F #
#                            W\SFP28_ER_V1_DML_APD\Debug\Obj\tec.r66           #
#                            D:\Projects\Coset\Project_SKT_SFP28_T_2020\3.SW\F #
#                            W\SFP28_ER_V1_DML_APD\Debug\Obj\timer.r66         #
#                            D:\Projects\Coset\Project_SKT_SFP28_T_2020\3.SW\F #
#                            W\SFP28_ER_V1_DML_APD\Debug\Obj\tosa_control.r66  #
#                            D:\Projects\Coset\Project_SKT_SFP28_T_2020\3.SW\F #
#                            W\SFP28_ER_V1_DML_APD\Debug\Obj\twm.r66           #
#                            -o                                                #
#                            D:\Projects\Coset\Project_SKT_SFP28_T_2020\3.SW\F #
#                            W\SFP28_ER_V1_DML_APD\Debug\Exe\SFP28_ER_V1_DML_A #
#                            PD_200927_a.hex                                   #
#                            -Fintel-standard -l                               #
#                            D:\Projects\Coset\Project_SKT_SFP28_T_2020\3.SW\F #
#                            W\SFP28_ER_V1_DML_APD\Debug\List\SFP28_ER_V1_DML_ #
#                            APD_200927_a.map                                  #
#                            -xms                                              #
#                            "-IC:\Program Files (x86)\IAR Systems\Embedded Wo #
#                            rkbench 4.6\MAXQ\LIB\"                            #
#                            -f                                                #
#                            D:\Projects\Coset\Project_SKT_SFP28_T_2020\3.SW\F #
#                            W\SFP28_ER_V1_DML_APD\Source\Customized\lnkds4835 #
#                            .xcl                                              #
#                            (-cmaxq -Z(CODE)RESET=0-1F -Z(CODE)RCODE=20-11F   #
#                            -Z(DATA)DATA16_C,DATA8_ID,DATA16_ID,CHECKSUM,CONS #
#                            T=8120-87E0                                       #
#                            -Z(CODE)CDATA16_C,CDATA16_ID,CDATA8_ID,CCHECKSUM, #
#                            CCONST=120-7E0                                    #
#                            -QDATA16_C=CDATA16_C -QDATA16_ID=CDATA16_ID       #
#                            -QDATA8_ID=CDATA8_ID -QCHECKSUM=CCHECKSUM         #
#                            -QCONST=CCONST -P(CODE)CODE=0-FFFF                #
#                            -P(CODE)FARCODE=10000-1FFFF                       #
#                            -P(CODE)LCODE=0-1FFFF                             #
#                            -Z(DATA)DATA8_I,DATA8_Z,DATA8_N=2-FF              #
#                            -Z(DATA)DATA16_I,DATA16_Z,DATA16_N=2-FE0          #
#                            -Z(DATA)CSTACK+_CSTACK_SIZE#400-FE0               #
#                            -Z(DATA)HEAP+_HEAP_SIZE=400-FE0                   #
#                            -D?UTIL_MOVE_DP0=10976                            #
#                            -D?UTIL_MOVE_DP0_INC=1097C                        #
#                            -D?UTIL_MOVE_DP0_DEC=10982                        #
#                            -D?UTIL_MOVE_DP1=10988                            #
#                            -D?UTIL_MOVE_DP1_INC=1098E                        #
#                            -D?UTIL_MOVE_DP1_DEC=10994                        #
#                            -D?UTIL_MOVE_FP=1099A -D?UTIL_MOVE_FP_INC=109A0   #
#                            -D?UTIL_MOVE_FP_DEC=109A6) -n -f                  #
#                            "C:\Program Files (x86)\IAR Systems\Embedded Work #
#                            bench 4.6\MAXQ\config\hwmul_mod3.xcl"             #
#                            (-e?UC_MUL_HWM3=?UC_MUL_L01                       #
#                            -e?US_MUL_HWM3=?US_MUL_L02                        #
#                            -e?UL_MUL_HWM3=?UL_MUL_L03                        #
#                            -e?F_MUL_HWM3=?F_MUL_L04                          #
#                            -e?F_DIV_HWM3=?F_DIV_L04) -s __program_start      #
#                            "C:\Program Files (x86)\IAR Systems\Embedded Work #
#                            bench 4.6\MAXQ\LIB\CLIB\clmaxq20mslc.r66"         #
#                            -D_CSTACK_SIZE=32 -D_HEAP_SIZE=64                 #
#                                                                              #
#                           Copyright (C) 1987-2016 IAR Systems AB.            #
################################################################################





                ****************************************
                *                                      *
                *           CROSS REFERENCE            *
                *                                      *
                ****************************************

       Program entry at : CODE      0000  Relocatable, from module : __CSTARTUP__




                ****************************************
                *                                      *
                *            RUNTIME MODEL             *
                *                                      *
                ****************************************

  __accumulators  = 16+
  __code_model    = s
  __const_in_code = 1
  __cpu_core      = MAXQ20
  __data_model    = l
  __rt_version    = 2

                ****************************************
                *                                      *
                *    AUTOMATIC SYMBOL REDIRECTIONS     *
                *                                      *
                ****************************************

                  There are no automatic symbol redirections.



                ****************************************
                *                                      *
                *              MODULE MAP              *
                *                                      *
                ****************************************


  DEFINED ABSOLUTE ENTRIES
    *************************************************************************

  DEFINED ABSOLUTE ENTRIES
  PROGRAM MODULE, NAME : ?ABS_ENTRY_MOD

Absolute parts
           ENTRY                   ADDRESS         REF BY
           =====                   =======         ======
           _HEAP_SIZE              0064 
           _CSTACK_SIZE            0032 
           ?UTIL_MOVE_FP_DEC       000109A6 
           ?UTIL_MOVE_FP_INC       000109A0 
           ?UTIL_MOVE_FP           0001099A 
           ?UTIL_MOVE_DP1_DEC      00010994 
           ?UTIL_MOVE_DP1_INC      0001098E        ?cstart_init_copy (?cstart_init_copy)
           ?UTIL_MOVE_DP1          00010988 
           ?UTIL_MOVE_DP0_DEC      00010982        exec_lower_page_memory (memory_access)
                                                   exec_upper_page81H_memory (memory_access)
                                                   load_init_data_from_flash (mcu_convert)
           ?UTIL_MOVE_DP0_INC      0001097C        exec_lower_page_memory (memory_access)
                                                   exec_upper_page81H_memory (memory_access)
                                                   load_init_data_from_flash (mcu_convert)
           ?UTIL_MOVE_DP0          00010976        APD_Init (board)
                                                   APD_Process (mcu_convert)
                                                   DDM_Read (ddm)
                                                   I2CM_WriteNBytes (i2cm)
                                                   I2C_Slave_Stop (i2cslave)
                                                   LdControl (tosa_control)
                                                   LdControl_APC_3 (tosa_control)
                                                   LdControl_manually (tosa_control)
                                                   ModBiasControl_APC_3 (tosa_control)
                                                   ModBiasControl_manually (tosa_control)
                                                   ProcessReceivedI2CData (memory_access)
                                                   Segment part 35 (i2cslave)
                                                   TECC_Init (board)
                                                   TEC_Control_APC_3 (tosa_control)
                                                   TempCalibration_adjusted (ddm)
                                                   XconBiasControl (tosa_control)
                                                   cal_Temp_Slope_Offset (state_transition)
                                                   cdr_pmic_ch_control_reinit (tosa_control)
                                                   cdr_power_management_init (tosa_control)
                                                   check_tx_dis (state_transition)
                                                   confirm_write_master_gpio_multiple_bytes (i2c_master_gpio)
                                                   ddm_mon_rx_power (state_transition)
                                                   detect_channel_thr_alarm (state_transition)
                                                   detect_module_thr_alarm (state_transition)
                                                   exec_lower_page_memory (memory_access)
                                                   exec_upper_page2_memory (memory_access)
                                                   exec_upper_page80H_memory (memory_access)
                                                   exec_upper_page81H_memory (memory_access)
                                                   get_reg_memory (memory_access)
                                                   high_power_up_action (state_transition)
                                                   initialize_variables (mcu_convert)
                                                   insert_write_entry (memory_access)
                                                   load_init_data_from_flash (mcu_convert)
                                                   memcpy (?MEMCPY)
                                                   polled_write_entry (memory_access)
                                                   rate_select_control_cdr (tosa_control)
                                                   restore_memory_from_flash_all (mcu_convert)
                                                   rx_cdr_forced_mute_enable (mcu_convert)
                                                   rx_cdr_init (mcu_convert)
                                                   save_memory_to_flash_tx_rx_cdr (mcu_convert)
                                                   sfp28_state_fault (state_transition)
                                                   tx_cdr_init (tosa_control)
                                                   tx_input_equalization (memory_access)
                                                   update_faws_summary_registers (state_transition)
                                                   update_msa_control_regs_from_rx_cdr (memory_access)
                                                   update_msa_control_regs_from_tx_cdr (memory_access)
                                                   update_rate_select_operation (state_transition)
                                                   wavelength_info_set (tosa_control)
    *************************************************************************

  FILE NAME : D:\Projects\Coset\Project_SKT_SFP28_T_2020\3.SW\FW\SFP28_ER_V1_DML_APD\Debug\Obj\Q20_floatMACLIB_ieee754.r66
  LIBRARY MODULE, NAME : ?F_MUL_HW

  SEGMENTS IN THE MODULE
  ======================
__aseg
  Relative segment, address: CODE 0000, align: 0
  Segment part 1. ROOT 
    -------------------------------------------------------------------------
<CODE> 3 (was CODE)
  Relative segment, address: CODE 9450 - 94CB (0x7c bytes), align: 1
  Segment part 4.
           ENTRY                   ADDRESS         REF BY
           =====                   =======         ======
           ?F_MUL_HWM3             9450            TempCalibration_adjusted (ddm)
                                                   cal_Temp_Slope_Offset (state_transition)
                                                   ddm_mon_rx_power (state_transition)
                                                   ddm_mon_tx_power (state_transition)

    -------------------------------------------------------------------------
  LIBRARY MODULE, NAME : ?F_DIV_HW

  SEGMENTS IN THE MODULE
  ======================
__aseg
  Relative segment, address: CODE 0000, align: 0
  Segment part 1. ROOT 
    -------------------------------------------------------------------------
<CODE> 3 (was CODE)
  Relative segment, address: CODE 89C6 - 8B03 (0x13e bytes), align: 1
  Segment part 4.
           ENTRY                   ADDRESS         REF BY
           =====                   =======         ======
           ?F_DIV_HWM3             89C6            cal_Temp_Slope_Offset (state_transition)
                                                   exec_lower_page_memory (memory_access)

    -------------------------------------------------------------------------
  LIBRARY MODULE, NAME : Float_Common

  SEGMENTS IN THE MODULE
  ======================
__aseg
  Relative segment, address: CODE 0000, align: 0
  Segment part 1. ROOT 
    -------------------------------------------------------------------------
<CODE> 3 (was CODE)
  Relative segment, address: CODE 8B04 - 8C3D (0x13a bytes), align: 1
  Segment part 2.
           ENTRY                   ADDRESS         REF BY
           =====                   =======         ======
           Q20_Float_Final         8C30            Segment part 2 (F_ADD_L04)
           Q20_Float_Init          8B20            ?F_DIV_HWM3 (?F_DIV_HW)
                                                   ?F_MUL_HWM3 (?F_MUL_HW)
                                                   Segment part 2 (F_ADD_L04)
           Q20_Float_Wrap          8BD6            ?F_DIV_HWM3 (?F_DIV_HW)
                                                   ?F_MUL_HWM3 (?F_MUL_HW)
                                                   Segment part 2 (F_ADD_L04)
           set_ind                 8B18            ?F_DIV_HWM3 (?F_DIV_HW)
                                                   ?F_MUL_HWM3 (?F_MUL_HW)
                                                   Segment part 2 (F_ADD_L04)
           set_inf                 8B08            ?F_DIV_HWM3 (?F_DIV_HW)
                                                   ?F_MUL_HWM3 (?F_MUL_HW)
           set_zero                8B04            ?F_DIV_HWM3 (?F_DIV_HW)
                                                   ?F_MUL_HWM3 (?F_MUL_HW)

    *************************************************************************

  FILE NAME : D:\Projects\Coset\Project_SKT_SFP28_T_2020\3.SW\FW\SFP28_ER_V1_DML_APD\Debug\Obj\adc.r66
  PROGRAM MODULE, NAME : adc

  SEGMENTS IN THE MODULE
  ======================
DATA16_SFR
  Relative segment, address: IDATA 0100 - 0101 (0x2 bytes), align: 0
  Segment part 1. ROOT 
           ENTRY                   ADDRESS         REF BY
           =====                   =======         ======
           _A_ADCN                 0100 
    -------------------------------------------------------------------------
DATA16_SFR
  Relative segment, address: IDATA 0104 - 0105 (0x2 bytes), align: 0
  Segment part 2. ROOT 
           ENTRY                   ADDRESS         REF BY
           =====                   =======         ======
           ADDATA                  0104 
    -------------------------------------------------------------------------
<CODE> 3 (was CODE)
  Relative segment, address: CODE 9BAC - 9BDB (0x30 bytes), align: 1
  Segment part 4.
           ENTRY                   ADDRESS         REF BY
           =====                   =======         ======
           ADC_Config              9BAC            ADC_Init (board)
    -------------------------------------------------------------------------
<CODE> 3 (was CODE)
  Relative segment, address: CODE 9C0A - 9C37 (0x2e bytes), align: 1
  Segment part 5.
           ENTRY                   ADDRESS         REF BY
           =====                   =======         ======
           ADC_Channel_Config      9C0A            ADC_Init (board)
    -------------------------------------------------------------------------
<CODE> 3 (was CODE)
  Relative segment, address: CODE 9C86 - 9CA9 (0x24 bytes), align: 1
  Segment part 6.
           ENTRY                   ADDRESS         REF BY
           =====                   =======         ======
           ADC_ReadOut             9C86            DDM_Read (ddm)
                                                   ddm_mon_rx_power (state_transition)
                                                   ddm_mon_tx_power (state_transition)
                                                   exec_upper_page2_memory (memory_access)
                                                   high_power_up_action (state_transition)

    *************************************************************************

  FILE NAME : D:\Projects\Coset\Project_SKT_SFP28_T_2020\3.SW\FW\SFP28_ER_V1_DML_APD\Debug\Obj\alarm_warning.r66
  PROGRAM MODULE, NAME : alarm_warning

  SEGMENTS IN THE MODULE
  ======================
<CODE> 1 (was CODE)
  Relative segment, address: CODE 001E - 001F (0x2 bytes), align: 1
  Segment part 2.
           ENTRY                   ADDRESS         REF BY
           =====                   =======         ======
           SetUnsignedAlarmsAndWarnings
                                   001E            DDM_Read (ddm)
    -------------------------------------------------------------------------
<CODE> 2 (was CODE)
  Relative segment, address: CODE 010E - 011F (0x12 bytes), align: 1
  Segment part 5.
           ENTRY                   ADDRESS         REF BY
           =====                   =======         ======
           Clear_TXF_Status        010E            Segment part 50 (board)
               calls direct
               CSTACK = 00000000 ( 00000002 )

    *************************************************************************

  FILE NAME : D:\Projects\Coset\Project_SKT_SFP28_T_2020\3.SW\FW\SFP28_ER_V1_DML_APD\Debug\Obj\board.r66
  PROGRAM MODULE, NAME : board

  SEGMENTS IN THE MODULE
  ======================
DATA16_SFR
  Relative segment, address: IDATA 020C - 020C (0x1 bytes), align: 0
  Segment part 1. ROOT 
           ENTRY                   ADDRESS         REF BY
           =====                   =======         ======
           _A_IMR                  020C 
    -------------------------------------------------------------------------
DATA16_SFR
  Relative segment, address: IDATA 0000 - 0001 (0x2 bytes), align: 0
  Segment part 2. ROOT 
           ENTRY                   ADDRESS         REF BY
           =====                   =======         ======
           _A_PO2                  0000 
    -------------------------------------------------------------------------
DATA16_SFR
  Relative segment, address: IDATA 0002 - 0003 (0x2 bytes), align: 0
  Segment part 3. ROOT 
           ENTRY                   ADDRESS         REF BY
           =====                   =======         ======
           _A_PO1                  0002 
    -------------------------------------------------------------------------
DATA16_SFR
  Relative segment, address: IDATA 0004 - 0005 (0x2 bytes), align: 0
  Segment part 4. ROOT 
           ENTRY                   ADDRESS         REF BY
           =====                   =======         ======
           _A_PO0                  0004 
    -------------------------------------------------------------------------
DATA16_SFR
  Relative segment, address: IDATA 0006 - 0007 (0x2 bytes), align: 0
  Segment part 5. ROOT 
           ENTRY                   ADDRESS         REF BY
           =====                   =======         ======
           _A_EIF2                 0006 
    -------------------------------------------------------------------------
DATA16_SFR
  Relative segment, address: IDATA 0008 - 0009 (0x2 bytes), align: 0
  Segment part 6. ROOT 
           ENTRY                   ADDRESS         REF BY
           =====                   =======         ======
           _A_EIF1                 0008 
    -------------------------------------------------------------------------
DATA16_SFR
  Relative segment, address: IDATA 0010 - 0011 (0x2 bytes), align: 0
  Segment part 7. ROOT 
           ENTRY                   ADDRESS         REF BY
           =====                   =======         ======
           _A_PI2                  0010 
    -------------------------------------------------------------------------
DATA16_SFR
  Relative segment, address: IDATA 0012 - 0013 (0x2 bytes), align: 0
  Segment part 8. ROOT 
           ENTRY                   ADDRESS         REF BY
           =====                   =======         ======
           _A_PI1                  0012 
    -------------------------------------------------------------------------
DATA16_SFR
  Relative segment, address: IDATA 001A - 001B (0x2 bytes), align: 0
  Segment part 9. ROOT 
           ENTRY                   ADDRESS         REF BY
           =====                   =======         ======
           _A_EIE2                 001A 
    -------------------------------------------------------------------------
DATA16_SFR
  Relative segment, address: IDATA 001C - 001D (0x2 bytes), align: 0
  Segment part 10. ROOT 
           ENTRY                   ADDRESS         REF BY
           =====                   =======         ======
           _A_EIE1                 001C 
    -------------------------------------------------------------------------
DATA16_SFR
  Relative segment, address: IDATA 0020 - 0021 (0x2 bytes), align: 0
  Segment part 11. ROOT 
           ENTRY                   ADDRESS         REF BY
           =====                   =======         ======
           _A_PD2                  0020 
    -------------------------------------------------------------------------
DATA16_SFR
  Relative segment, address: IDATA 0022 - 0023 (0x2 bytes), align: 0
  Segment part 12. ROOT 
           ENTRY                   ADDRESS         REF BY
           =====                   =======         ======
           _A_PD1                  0022 
    -------------------------------------------------------------------------
DATA16_SFR
  Relative segment, address: IDATA 0024 - 0025 (0x2 bytes), align: 0
  Segment part 13. ROOT 
           ENTRY                   ADDRESS         REF BY
           =====                   =======         ======
           _A_PD0                  0024 
    -------------------------------------------------------------------------
DATA16_SFR
  Relative segment, address: IDATA 0026 - 0027 (0x2 bytes), align: 0
  Segment part 14. ROOT 
           ENTRY                   ADDRESS         REF BY
           =====                   =======         ======
           _A_EIES2                0026 
    -------------------------------------------------------------------------
DATA16_SFR
  Relative segment, address: IDATA 0028 - 0029 (0x2 bytes), align: 0
  Segment part 15. ROOT 
           ENTRY                   ADDRESS         REF BY
           =====                   =======         ======
           _A_EIES1                0028 
    -------------------------------------------------------------------------
DATA16_SFR
  Relative segment, address: IDATA 002C - 002D (0x2 bytes), align: 0
  Segment part 16. ROOT 
           ENTRY                   ADDRESS         REF BY
           =====                   =======         ======
           _A_PLACNT1              002C 
    -------------------------------------------------------------------------
DATA16_SFR
  Relative segment, address: IDATA 002E - 002F (0x2 bytes), align: 0
  Segment part 17. ROOT 
           ENTRY                   ADDRESS         REF BY
           =====                   =======         ======
           PLADAT1                 002E 
    -------------------------------------------------------------------------
DATA16_SFR
  Relative segment, address: IDATA 0030 - 0031 (0x2 bytes), align: 0
  Segment part 18. ROOT 
           ENTRY                   ADDRESS         REF BY
           =====                   =======         ======
           _A_PLACNT2              0030 
    -------------------------------------------------------------------------
DATA16_SFR
  Relative segment, address: IDATA 0032 - 0033 (0x2 bytes), align: 0
  Segment part 19. ROOT 
           ENTRY                   ADDRESS         REF BY
           =====                   =======         ======
           PLADAT2                 0032 
    -------------------------------------------------------------------------
DATA16_SFR
  Relative segment, address: IDATA 0034 - 0035 (0x2 bytes), align: 0
  Segment part 20. ROOT 
           ENTRY                   ADDRESS         REF BY
           =====                   =======         ======
           _A_PLACNT3              0034 
    -------------------------------------------------------------------------
DATA16_SFR
  Relative segment, address: IDATA 0036 - 0037 (0x2 bytes), align: 0
  Segment part 21. ROOT 
           ENTRY                   ADDRESS         REF BY
           =====                   =======         ======
           PLADAT3                 0036 
    -------------------------------------------------------------------------
DATA16_SFR
  Relative segment, address: IDATA 005A - 005B (0x2 bytes), align: 0
  Segment part 22. ROOT 
           ENTRY                   ADDRESS         REF BY
           =====                   =======         ======
           _A_TECCN1               005A 
    -------------------------------------------------------------------------
DATA16_SFR
  Relative segment, address: IDATA 007C - 007D (0x2 bytes), align: 0
  Segment part 23. ROOT 
           ENTRY                   ADDRESS         REF BY
           =====                   =======         ======
           NORMV                   007C 
    -------------------------------------------------------------------------
DATA16_SFR
  Relative segment, address: IDATA 0102 - 0103 (0x2 bytes), align: 0
  Segment part 25. ROOT 
           ENTRY                   ADDRESS         REF BY
           =====                   =======         ======
           _A_ADST                 0102 
    -------------------------------------------------------------------------
DATA16_SFR
  Relative segment, address: IDATA 0110 - 0111 (0x2 bytes), align: 0
  Segment part 26. ROOT 
           ENTRY                   ADDRESS         REF BY
           =====                   =======         ======
           _A_TEMPCN               0110 
    -------------------------------------------------------------------------
DATA16_SFR
  Relative segment, address: IDATA 012C - 012D (0x2 bytes), align: 0
  Segment part 27. ROOT 
           ENTRY                   ADDRESS         REF BY
           =====                   =======         ======
           _A_IEN0                 012C 
    -------------------------------------------------------------------------
DATA16_SFR
  Relative segment, address: IDATA 012E - 012F (0x2 bytes), align: 0
  Segment part 28. ROOT 
           ENTRY                   ADDRESS         REF BY
           =====                   =======         ======
           _A_IEN1                 012E 
    -------------------------------------------------------------------------
DATA16_SFR
  Relative segment, address: IDATA 0130 - 0131 (0x2 bytes), align: 0
  Segment part 29. ROOT 
           ENTRY                   ADDRESS         REF BY
           =====                   =======         ======
           _A_IEN2                 0130 
    -------------------------------------------------------------------------
DATA16_SFR
  Relative segment, address: IDATA 0134 - 0135 (0x2 bytes), align: 0
  Segment part 30. ROOT 
           ENTRY                   ADDRESS         REF BY
           =====                   =======         ======
           _A_INRSH                0134 
    -------------------------------------------------------------------------
DATA16_SFR
  Relative segment, address: IDATA 0174 - 0175 (0x2 bytes), align: 0
  Segment part 31. ROOT 
           ENTRY                   ADDRESS         REF BY
           =====                   =======         ======
           _A_MIS1                 0174 
    -------------------------------------------------------------------------
DATA16_SFR
  Relative segment, address: IDATA 018E - 018F (0x2 bytes), align: 0
  Segment part 32. ROOT 
           ENTRY                   ADDRESS         REF BY
           =====                   =======         ======
           APDDAT4                 018E 
    -------------------------------------------------------------------------
DATA16_SFR
  Relative segment, address: IDATA 01BA - 01BB (0x2 bytes), align: 0
  Segment part 33. ROOT 
           ENTRY                   ADDRESS         REF BY
           =====                   =======         ======
           APDCN4                  01BA 
    -------------------------------------------------------------------------
DATA16_SFR
  Relative segment, address: IDATA 01BC - 01BC (0x1 bytes), align: 0
  Segment part 34. ROOT 
           ENTRY                   ADDRESS         REF BY
           =====                   =======         ======
           APDIDX4                 01BC 
    -------------------------------------------------------------------------
DATA16_SFR
  Relative segment, address: IDATA 021E - 021F (0x2 bytes), align: 0
  Segment part 35. ROOT 
           ENTRY                   ADDRESS         REF BY
           =====                   =======         ======
           _A_WDCN                 021E 
    -------------------------------------------------------------------------
DATA16_SFR
  Relative segment, address: IDATA 006C - 006C (0x1 bytes), align: 0
  Segment part 36. ROOT 
           ENTRY                   ADDRESS         REF BY
           =====                   =======         ======
           GP_REG1                 006C 
    -------------------------------------------------------------------------
DATA16_AN
  Relative segment, address: DATA 0100 - 01FF (0x100 bytes), align: 0
  Segment part 37. ROOT       Intra module refs:   I2C_Slave_Buffer_A2
           ENTRY                   ADDRESS         REF BY
           =====                   =======         ======
           I2C_Slave_Buffer_A0_Local_Memory
                                   0100 
    -------------------------------------------------------------------------
DATA16_AN
  Relative segment, address: DATA 0200 - 027F (0x80 bytes), align: 0
  Segment part 38. ROOT       Intra module refs:   I2C_Slave_Buffer_A2_Pn_Up
           ENTRY                   ADDRESS         REF BY
           =====                   =======         ======
           I2C_Slave_Buffer_A2     0200 
    -------------------------------------------------------------------------
DATA16_AN
  Relative segment, address: DATA 0280 - 02FF (0x80 bytes), align: 0
  Segment part 39. ROOT       Intra module refs:   write_i2c_list
           ENTRY                   ADDRESS         REF BY
           =====                   =======         ======
           I2C_Slave_Buffer_A2_Pn_Up
                                   0280 
    -------------------------------------------------------------------------
DATA16_AN
  Relative segment, address: DATA 0300 - 03FF (0x100 bytes), align: 0
  Segment part 40. ROOT       Intra module refs:   I2C_Rx_Buffer
           ENTRY                   ADDRESS         REF BY
           =====                   =======         ======
           write_i2c_list          0300 
    -------------------------------------------------------------------------
DATA16_AN
  Relative segment, address: DATA 0400 - 04FF (0x100 bytes), align: 0
  Segment part 41. ROOT       Intra module refs:   I2C_Slave_Buffer_A2_P00H_Up
           ENTRY                   ADDRESS         REF BY
           =====                   =======         ======
           I2C_Rx_Buffer           0400 
    -------------------------------------------------------------------------
DATA16_AN
  Relative segment, address: DATA 0500 - 057F (0x80 bytes), align: 0
  Segment part 42. ROOT       Intra module refs:   I2C_Slave_Buffer_A2_P01H_Up
           ENTRY                   ADDRESS         REF BY
           =====                   =======         ======
           I2C_Slave_Buffer_A2_P00H_Up
                                   0500 
    -------------------------------------------------------------------------
DATA16_AN
  Relative segment, address: DATA 0580 - 05FF (0x80 bytes), align: 0
  Segment part 43. ROOT       Intra module refs:   I2C_Slave_Buffer_A2_P02H_Up
           ENTRY                   ADDRESS         REF BY
           =====                   =======         ======
           I2C_Slave_Buffer_A2_P01H_Up
                                   0580 
    -------------------------------------------------------------------------
DATA16_AN
  Relative segment, address: DATA 0600 - 067F (0x80 bytes), align: 0
  Segment part 44. ROOT       Intra module refs:   I2C_Slave_Buffer_A2_P80H_Up
           ENTRY                   ADDRESS         REF BY
           =====                   =======         ======
           I2C_Slave_Buffer_A2_P02H_Up
                                   0600 
    -------------------------------------------------------------------------
DATA16_AN
  Relative segment, address: DATA 0680 - 06FF (0x80 bytes), align: 0
  Segment part 45. ROOT       Intra module refs:   I2C_Slave_Buffer_A2_P81H_Up
           ENTRY                   ADDRESS         REF BY
           =====                   =======         ======
           I2C_Slave_Buffer_A2_P80H_Up
                                   0680 
    -------------------------------------------------------------------------
DATA16_AN
  Relative segment, address: DATA 0700 - 077F (0x80 bytes), align: 0
  Segment part 46. ROOT       Intra module refs:   I2C_Slave_Buffer_A2_P82H_Up (i2cslave)
           ENTRY                   ADDRESS         REF BY
           =====                   =======         ======
           I2C_Slave_Buffer_A2_P81H_Up
                                   0700 
    -------------------------------------------------------------------------
DATA16_Z
  Relative segment, address: DATA 0900 - 0901 (0x2 bytes), align: 1
  Segment part 48.            Intra module refs:   MasterI2CArbitration
    -------------------------------------------------------------------------
<CODE> 3 (was CODE)
  Relative segment, address: CODE 901E - 90ED (0xd0 bytes), align: 1
  Segment part 50. ROOT 
           ENTRY                   ADDRESS         REF BY
           =====                   =======         ======
           ?ISR0                   901E            ?INTERRUPT0 (?INTERRUPT0)
           TXD_Interrupt           901E 
               interrupt function
               calls direct
               CSTACK = 00000000 ( 00000020 )
    -------------------------------------------------------------------------
<CODE> 3 (was CODE)
  Relative segment, address: CODE 9DFE - 9E13 (0x16 bytes), align: 1
  Segment part 51.
           ENTRY                   ADDRESS         REF BY
           =====                   =======         ======
           WATCHDOG_Init           9DFE            Board_Init (initialization)
    -------------------------------------------------------------------------
<CODE> 3 (was CODE)
  Relative segment, address: CODE 9EB4 - 9EB9 (0x6 bytes), align: 1
  Segment part 52.
           ENTRY                   ADDRESS         REF BY
           =====                   =======         ======
           INRUSH_Init             9EB4            Initialization (initialization)
    -------------------------------------------------------------------------
<CODE> 3 (was CODE)
  Relative segment, address: CODE 9722 - 976B (0x4a bytes), align: 1
  Segment part 53.
           ENTRY                   ADDRESS         REF BY
           =====                   =======         ======
           GPIO_Init               9722            Initialization (initialization)
    -------------------------------------------------------------------------
<CODE> 3 (was CODE)
  Relative segment, address: CODE 926A - 9319 (0xb0 bytes), align: 1
  Segment part 54.
           ENTRY                   ADDRESS         REF BY
           =====                   =======         ======
           ADC_Init                926A            Board_Init (initialization)
               calls direct
               CSTACK = 00000000 ( 00000002 )
    -------------------------------------------------------------------------
<CODE> 3 (was CODE)
  Relative segment, address: CODE 996E - 99AB (0x3e bytes), align: 1
  Segment part 55.
           ENTRY                   ADDRESS         REF BY
           =====                   =======         ======
           TXD_External_Interrupt_init
                                   996E            sfp28_state_initialize (state_transition)
    -------------------------------------------------------------------------
<CODE> 3 (was CODE)
  Relative segment, address: CODE 7E22 - 7FFD (0x1dc bytes), align: 1
  Segment part 58.            Intra module refs:   TEC_Init
           ENTRY                   ADDRESS         REF BY
           =====                   =======         ======
           TECC_Init               7E22 
               calls direct
               CSTACK = 00000000 ( 00000004 )
    -------------------------------------------------------------------------
<CODE> 3 (was CODE)
  Relative segment, address: CODE 7FFE - 825D (0x260 bytes), align: 1
  Segment part 59.
           ENTRY                   ADDRESS         REF BY
           =====                   =======         ======
           APD_Init                7FFE            exec_upper_page81H_memory (memory_access)
                                                   sfp28_state_reset (state_transition)
               calls direct
               CSTACK = 00000000 ( 00000004 )
    -------------------------------------------------------------------------
<CODE> 3 (was CODE)
  Relative segment, address: CODE 825E - 8273 (0x16 bytes), align: 1
  Segment part 65.
           ENTRY                   ADDRESS         REF BY
           =====                   =======         ======
           I2CMaster_Init          825E            Board_Init (initialization)
               calls direct
               CSTACK = 00000000 ( 00000002 )
    -------------------------------------------------------------------------
<CODE> 3 (was CODE)
  Relative segment, address: CODE 8274 - 8281 (0xe bytes), align: 1
  Segment part 66.
           ENTRY                   ADDRESS         REF BY
           =====                   =======         ======
           TEC_Init                8274            exec_upper_page81H_memory (memory_access)
                                                   high_power_up_action (state_transition)
               calls direct
               CSTACK = 00000000 ( 00000002 )
    -------------------------------------------------------------------------
<CODE> 3 (was CODE)
  Relative segment, address: CODE 97B2 - 97F3 (0x42 bytes), align: 1
  Segment part 67.
           ENTRY                   ADDRESS         REF BY
           =====                   =======         ======
           PLA_Init                97B2            Board_Init (initialization)
    -------------------------------------------------------------------------
<CODE> 3 (was CODE)
  Relative segment, address: CODE 9E14 - 9E29 (0x16 bytes), align: 1
  Segment part 68.
           ENTRY                   ADDRESS         REF BY
           =====                   =======         ======
           PLA_Soft_TXD_Control    9E14            check_tx_dis (state_transition)
                                                   exec_upper_page2_memory (memory_access)
                                                   set_on_tx_dis_manually (state_transition)
                                                   set_tx_dis_at_network_lanes (state_transition)
                                                   set_tx_dis_at_network_lanes_in_isr (state_transition)
    -------------------------------------------------------------------------
<CODE> 3 (was CODE)
  Relative segment, address: CODE 967A - 96CF (0x56 bytes), align: 1
  Segment part 71.
           ENTRY                   ADDRESS         REF BY
           =====                   =======         ======
           MasterI2CArbitration    967A            main (main)
               calls direct
               CSTACK = 00000000 ( 00000002 )
    -------------------------------------------------------------------------
DATA16_Z
  Relative segment, address: DATA 0902 - 0903 (0x2 bytes), align: 1
  Segment part 49.            Intra module refs:   MasterI2CArbitration

    *************************************************************************

  FILE NAME : D:\Projects\Coset\Project_SKT_SFP28_T_2020\3.SW\FW\SFP28_ER_V1_DML_APD\Debug\Obj\dc_dc.r66
  PROGRAM MODULE, NAME : dc_dc

  SEGMENTS IN THE MODULE
  ======================
DATA16_SFR
  Relative segment, address: IDATA 0182 - 0183 (0x2 bytes), align: 0
  Segment part 1. ROOT 
           ENTRY                   ADDRESS         REF BY
           =====                   =======         ======
           PICNT                   0182 
    -------------------------------------------------------------------------
DATA16_SFR
  Relative segment, address: IDATA 0184 - 0185 (0x2 bytes), align: 0
  Segment part 2. ROOT 
           ENTRY                   ADDRESS         REF BY
           =====                   =======         ======
           PIDATA                  0184 
    -------------------------------------------------------------------------
DATA16_SFR
  Relative segment, address: IDATA 0194 - 0195 (0x2 bytes), align: 0
  Segment part 3. ROOT 
           ENTRY                   ADDRESS         REF BY
           =====                   =======         ======
           VRDCDC                  0194 
    -------------------------------------------------------------------------
<CODE> 3 (was CODE)
  Relative segment, address: CODE 99EA - 9A25 (0x3c bytes), align: 1
  Segment part 9.
           ENTRY                   ADDRESS         REF BY
           =====                   =======         ======
           CalcExternalBoostTarget
                                   99EA            APD_Init (board)
                                                   APD_Process (mcu_convert)
                                                   exec_upper_page81H_memory (memory_access)

    *************************************************************************

  FILE NAME : D:\Projects\Coset\Project_SKT_SFP28_T_2020\3.SW\FW\SFP28_ER_V1_DML_APD\Debug\Obj\ddm.r66
  PROGRAM MODULE, NAME : ddm

  SEGMENTS IN THE MODULE
  ======================
DATA16_SFR
  Relative segment, address: IDATA 011C - 011D (0x2 bytes), align: 0
  Segment part 2. ROOT 
           ENTRY                   ADDRESS         REF BY
           =====                   =======         ======
           ITEMP_DATA              011C 
    -------------------------------------------------------------------------
DATA16_SFR
  Relative segment, address: IDATA 0144 - 0145 (0x2 bytes), align: 0
  Segment part 3. ROOT 
           ENTRY                   ADDRESS         REF BY
           =====                   =======         ======
           IDCD1                   0144 
    -------------------------------------------------------------------------
DATA16_SFR
  Relative segment, address: IDATA 0146 - 0147 (0x2 bytes), align: 0
  Segment part 4. ROOT 
           ENTRY                   ADDRESS         REF BY
           =====                   =======         ======
           IDCD2                   0146 
    -------------------------------------------------------------------------
DATA16_SFR
  Relative segment, address: IDATA 014A - 014B (0x2 bytes), align: 0
  Segment part 5. ROOT 
           ENTRY                   ADDRESS         REF BY
           =====                   =======         ======
           IDCD3                   014A 
    -------------------------------------------------------------------------
DATA16_SFR
  Relative segment, address: IDATA 014C - 014D (0x2 bytes), align: 0
  Segment part 6. ROOT 
           ENTRY                   ADDRESS         REF BY
           =====                   =======         ======
           IDCD4                   014C 
    -------------------------------------------------------------------------
DATA16_SFR
  Relative segment, address: IDATA 0164 - 0165 (0x2 bytes), align: 0
  Segment part 7. ROOT 
           ENTRY                   ADDRESS         REF BY
           =====                   =======         ======
           _A_IDCN1                0164 
    -------------------------------------------------------------------------
DATA16_SFR
  Relative segment, address: IDATA 0166 - 0167 (0x2 bytes), align: 0
  Segment part 8. ROOT 
           ENTRY                   ADDRESS         REF BY
           =====                   =======         ======
           _A_IDCN2                0166 
    -------------------------------------------------------------------------
DATA16_SFR
  Relative segment, address: IDATA 016E - 016F (0x2 bytes), align: 0
  Segment part 9. ROOT 
           ENTRY                   ADDRESS         REF BY
           =====                   =======         ======
           _A_IDCN3                016E 
    -------------------------------------------------------------------------
DATA16_SFR
  Relative segment, address: IDATA 0170 - 0171 (0x2 bytes), align: 0
  Segment part 10. ROOT 
           ENTRY                   ADDRESS         REF BY
           =====                   =======         ======
           _A_IDCN4                0170 
    -------------------------------------------------------------------------
DATA16_Z
  Relative segment, address: DATA 0904 - 0905 (0x2 bytes), align: 1
  Segment part 22.            Intra module refs:   CalibConstantRead
           ENTRY                   ADDRESS         REF BY
           =====                   =======         ======
           unAdc_scale             0904 
    -------------------------------------------------------------------------
DATA16_Z
  Relative segment, address: DATA 0906 - 0907 (0x2 bytes), align: 1
  Segment part 23.            Intra module refs:   CalibConstantRead
           ENTRY                   ADDRESS         REF BY
           =====                   =======         ======
           sAdc_offset             0906 
    -------------------------------------------------------------------------
DATA16_Z
  Relative segment, address: DATA 0908 - 0909 (0x2 bytes), align: 1
  Segment part 24.            Intra module refs:   CalibConstantRead
                                                   TempCalibration
           ENTRY                   ADDRESS         REF BY
           =====                   =======         ======
           unTemp_scale            0908 
    -------------------------------------------------------------------------
DATA16_Z
  Relative segment, address: DATA 090A - 090B (0x2 bytes), align: 1
  Segment part 25.            Intra module refs:   CalibConstantRead
                                                   TempCalibration
           ENTRY                   ADDRESS         REF BY
           =====                   =======         ======
           sTemp_offset            090A 
    -------------------------------------------------------------------------
<CODE> 3 (was CODE)
  Relative segment, address: CODE 85C0 - 86B3 (0xf4 bytes), align: 1
  Segment part 29.
           ENTRY                   ADDRESS         REF BY
           =====                   =======         ======
           DDM_Read                85C0            main (main)
               calls direct
               CSTACK = 00000000 ( 00000008 )
    -------------------------------------------------------------------------
<CODE> 3 (was CODE)
  Relative segment, address: CODE 86B4 - 86FB (0x48 bytes), align: 1
  Segment part 30.            Intra module refs:   ProcessTemperature
           ENTRY                   ADDRESS         REF BY
           =====                   =======         ======
           TempCalibration         86B4 
    -------------------------------------------------------------------------
<CODE> 3 (was CODE)
  Relative segment, address: CODE 86FC - 87BD (0xc2 bytes), align: 1
  Segment part 31.            Intra module refs:   ProcessTemperature
           ENTRY                   ADDRESS         REF BY
           =====                   =======         ======
           TempCalibration_adjusted
                                   86FC 
               CSTACK = 00000000 ( 00000008 )
    -------------------------------------------------------------------------
<CODE> 3 (was CODE)
  Relative segment, address: CODE 87BE - 8825 (0x68 bytes), align: 1
  Segment part 32.            Intra module refs:   DDM_Read
           ENTRY                   ADDRESS         REF BY
           =====                   =======         ======
           ProcessTemperature      87BE 
               calls direct
               CSTACK = 00000000 ( 00000008 )
    -------------------------------------------------------------------------
<CODE> 3 (was CODE)
  Relative segment, address: CODE 8826 - 883F (0x1a bytes), align: 1
  Segment part 34.            Intra module refs:   DDM_Read
    -------------------------------------------------------------------------
<CODE> 3 (was CODE)
  Relative segment, address: CODE 9836 - 9875 (0x40 bytes), align: 1
  Segment part 35.
           ENTRY                   ADDRESS         REF BY
           =====                   =======         ======
           CalibConstantRead       9836            Memory_Init (memory_access)
               calls direct
               CSTACK = 00000000 ( 00000002 )
    -------------------------------------------------------------------------
<CODE> 3 (was CODE)
  Relative segment, address: CODE 9E8A - 9E93 (0xa bytes), align: 1
  Segment part 36. ROOT 
           ENTRY                   ADDRESS         REF BY
           =====                   =======         ======
           ?ISR4                   9E8A            ?INTERRUPT4 (?INTERRUPT4)
           SH_Interrupt            9E8A 
               interrupt function

    *************************************************************************

  FILE NAME : D:\Projects\Coset\Project_SKT_SFP28_T_2020\3.SW\FW\SFP28_ER_V1_DML_APD\Debug\Obj\ds_dac.r66
  PROGRAM MODULE, NAME : ds_dac

  SEGMENTS IN THE MODULE
  ======================
DATA16_SFR
  Relative segment, address: IDATA 0186 - 0187 (0x2 bytes), align: 0
  Segment part 1. ROOT 
           ENTRY                   ADDRESS         REF BY
           =====                   =======         ======
           DPDATA                  0186 
    -------------------------------------------------------------------------
DATA16_SFR
  Relative segment, address: IDATA 01BE - 01BF (0x2 bytes), align: 0
  Segment part 2. ROOT 
           ENTRY                   ADDRESS         REF BY
           =====                   =======         ======
           DPCN                    01BE 

    *************************************************************************

  FILE NAME : D:\Projects\Coset\Project_SKT_SFP28_T_2020\3.SW\FW\SFP28_ER_V1_DML_APD\Debug\Obj\flash.r66
  PROGRAM MODULE, NAME : flash

  SEGMENTS IN THE MODULE
  ======================
DATA16_SFR
  Relative segment, address: IDATA 020A - 020A (0x1 bytes), align: 0
  Segment part 1. ROOT 
           ENTRY                   ADDRESS         REF BY
           =====                   =======         ======
           _A_IC                   020A 
    -------------------------------------------------------------------------
DATA16_SFR
  Relative segment, address: IDATA 0052 - 0053 (0x2 bytes), align: 0
  Segment part 2. ROOT 
           ENTRY                   ADDRESS         REF BY
           =====                   =======         ======
           _A_SVM                  0052 
    -------------------------------------------------------------------------
<CODE> 3 (was CODE)
  Relative segment, address: CODE 953A - 95A7 (0x6e bytes), align: 1
  Segment part 7.
           ENTRY                   ADDRESS         REF BY
           =====                   =======         ======
           CopySramToFlash         953A            FLASH_Update (mcu_convert)
               calls direct
               CSTACK = 00000000 ( 0000000A )
    -------------------------------------------------------------------------
<CODE> 3 (was CODE)
  Relative segment, address: CODE 9E3E - 9E4D (0x10 bytes), align: 1
  Segment part 8.
           ENTRY                   ADDRESS         REF BY
           =====                   =======         ======
           FlashReadBlock          9E3E            FLASH_Read (mcu_convert)
               calls direct
               CSTACK = 00000000 ( 00000002 )

    *************************************************************************

  FILE NAME : D:\Projects\Coset\Project_SKT_SFP28_T_2020\3.SW\FW\SFP28_ER_V1_DML_APD\Debug\Obj\flash_asm.r66
  PROGRAM MODULE, NAME : flash_asm

  SEGMENTS IN THE MODULE
  ======================
<CODE> 3 (was CODE)
  Relative segment, address: CODE 9A9C - 9AD5 (0x3a bytes), align: 1
  Segment part 2.
           ENTRY                   ADDRESS         REF BY
           =====                   =======         ======
           clear_block_in_flash    9A9C            CopySramToFlash (flash)
    -------------------------------------------------------------------------
<CODE> 3 (was CODE)
  Relative segment, address: CODE 96D0 - 9721 (0x52 bytes), align: 1
  Segment part 4.
           ENTRY                   ADDRESS         REF BY
           =====                   =======         ======
           write_block_to_flash    96D0            CopySramToFlash (flash)
    -------------------------------------------------------------------------
<CODE> 3 (was CODE)
  Relative segment, address: CODE 9EA6 - 9EAD (0x8 bytes), align: 1
  Segment part 5.
           ENTRY                   ADDRESS         REF BY
           =====                   =======         ======
           Info_Read               9EA6            CalibConstantRead (ddm)
    -------------------------------------------------------------------------
<CODE> 3 (was CODE)
  Relative segment, address: CODE 98B4 - 98F1 (0x3e bytes), align: 1
  Segment part 6.
           ENTRY                   ADDRESS         REF BY
           =====                   =======         ======
           read_block_from_flash   98B4            FlashReadBlock (flash)

    *************************************************************************

  FILE NAME : D:\Projects\Coset\Project_SKT_SFP28_T_2020\3.SW\FW\SFP28_ER_V1_DML_APD\Debug\Obj\hwmul.r66
  LIBRARY MODULE, NAME : ?MUL_HW

  SEGMENTS IN THE MODULE
  ======================
<CODE> 3 (was CODE)
  Relative segment, address: CODE 9B44 - 9B57 (0x14 bytes), align: 1
  Segment part 7.
           ENTRY                   ADDRESS         REF BY
           =====                   =======         ======
           ?SS_MUL_HWM3            9B44 
           ?US_MUL_HWM3            9B44            APD_Process (mcu_convert)
                                                   CalcExternalBoostTarget (dc_dc)
                                                   LdControl_APC_3 (tosa_control)
                                                   ModBiasControl_APC_3 (tosa_control)
                                                   TEC_Control_APC_3 (tosa_control)
                                                   ddm_mon_tx_bias (state_transition)
                                                   exec_upper_page2_memory (memory_access)
                                                   high_power_up_action (state_transition)
                                                   insert_write_entry (memory_access)
                                                   load_init_data_from_flash (mcu_convert)
                                                   polled_write_entry (memory_access)
                                                   wavelength_info_set (tosa_control)
    -------------------------------------------------------------------------
<CODE> 3 (was CODE)
  Relative segment, address: CODE 9B58 - 9B79 (0x22 bytes), align: 1
  Segment part 11.
           ENTRY                   ADDRESS         REF BY
           =====                   =======         ======
           ?SL_MUL_HWM3            9B58 
           ?UL_MUL_HWM3            9B58            ConvertVccScale (ddm)
                                                   TEC_Control_APC_3 (tosa_control)
                                                   TempCalibration (ddm)

    *************************************************************************

  FILE NAME : D:\Projects\Coset\Project_SKT_SFP28_T_2020\3.SW\FW\SFP28_ER_V1_DML_APD\Debug\Obj\i2c_master_gpio.r66
  PROGRAM MODULE, NAME : i2c_master_gpio

  SEGMENTS IN THE MODULE
  ======================
<CODE> 3 (was CODE)
  Relative segment, address: CODE 9930 - 996D (0x3e bytes), align: 1
  Segment part 13.
           ENTRY                   ADDRESS         REF BY
           =====                   =======         ======
           read_master_gpio_single_byte
                                   9930            LD_Drive_Get (tosa_control)
                                                   LD_Drive_Set (tosa_control)
                                                   cdr_pmic_ch_control_reinit (tosa_control)
                                                   cdr_power_management_init (tosa_control)
                                                   check_n_recover_cdr_fault_or_hw_reset (tosa_control)
                                                   detect_cdr_alarm (state_transition)
                                                   rate_select_control_cdr (tosa_control)
                                                   rx_cdr_init (mcu_convert)
                                                   rx_cdr_init_from_flash (mcu_convert)
                                                   rx_output_deemphasis (memory_access)
                                                   tx_cdr_init (tosa_control)
                                                   tx_cdr_init_from_flash (tosa_control)
               calls direct
               CSTACK = 00000000 ( 0000000A )
    -------------------------------------------------------------------------
<CODE> 3 (was CODE)
  Relative segment, address: CODE 9D94 - 9DB1 (0x1e bytes), align: 1
  Segment part 14.
           ENTRY                   ADDRESS         REF BY
           =====                   =======         ======
           read_master_gpio_multiple_bytes
                                   9D94            LD_Drive_Get (tosa_control)
                                                   LD_Drive_Set (tosa_control)
                                                   polled_tx_rx_combo_cdr_reg_info (tosa_control)
                                                   rx_cdr_forced_mute_enable (mcu_convert)
               calls direct
               CSTACK = 00000000 ( 00000002 )
    -------------------------------------------------------------------------
<CODE> 3 (was CODE)
  Relative segment, address: CODE 9AD6 - 9B0D (0x38 bytes), align: 1
  Segment part 15.
           ENTRY                   ADDRESS         REF BY
           =====                   =======         ======
           write_master_gpio_single_byte
                                   9AD6            LD_Drive_Set (tosa_control)
                                                   exec_upper_page80H_memory (memory_access)
                                                   exec_upper_page82H_memory (memory_access)
                                                   exec_upper_page83H_memory (memory_access)
                                                   exec_upper_page84H_memory (memory_access)
                                                   rate_select_control_cdr (tosa_control)
                                                   rx_output_deemphasis (memory_access)
                                                   tx_input_equalization (memory_access)
               calls direct
               CSTACK = 00000000 ( 00000006 )
    -------------------------------------------------------------------------
<CODE> 3 (was CODE)
  Relative segment, address: CODE 9D76 - 9D93 (0x1e bytes), align: 1
  Segment part 16.
           ENTRY                   ADDRESS         REF BY
           =====                   =======         ======
           write_master_gpio_multiple_bytes
                                   9D76            LD_Drive_Set (tosa_control)
                                                   LdInit_forced_on_first (tosa_control)
                                                   cdr_pmic_ch_control_reinit (tosa_control)
                                                   cdr_power_management_init (tosa_control)
                                                   high_power_up_action (state_transition)
                                                   polled_tx_rx_combo_cdr_reg_info (tosa_control)
                                                   rate_select_control_cdr (tosa_control)
                                                   rx_cdr_forced_mute_enable (mcu_convert)
                                                   rx_cdr_init (mcu_convert)
                                                   tx_cdr_init (tosa_control)
               calls direct
               CSTACK = 00000000 ( 00000002 )
    -------------------------------------------------------------------------
<CODE> 3 (was CODE)
  Relative segment, address: CODE 931A - 93BD (0xa4 bytes), align: 1
  Segment part 17.
           ENTRY                   ADDRESS         REF BY
           =====                   =======         ======
           confirm_write_master_gpio_multiple_bytes
                                   931A            cdr_pmic_ch_control_reinit (tosa_control)
                                                   cdr_power_management_init (tosa_control)
               calls direct
               CSTACK = 00000000 ( 00000014 )

    *************************************************************************

  FILE NAME : D:\Projects\Coset\Project_SKT_SFP28_T_2020\3.SW\FW\SFP28_ER_V1_DML_APD\Debug\Obj\i2cm.r66
  PROGRAM MODULE, NAME : i2cm

  SEGMENTS IN THE MODULE
  ======================
DATA16_SFR
  Relative segment, address: IDATA 0140 - 0141 (0x2 bytes), align: 0
  Segment part 4. ROOT 
           ENTRY                   ADDRESS         REF BY
           =====                   =======         ======
           DAD2W1                  0140 
    -------------------------------------------------------------------------
DATA16_SFR
  Relative segment, address: IDATA 0142 - 0143 (0x2 bytes), align: 0
  Segment part 5. ROOT 
           ENTRY                   ADDRESS         REF BY
           =====                   =======         ======
           DAD2W2                  0142 
    -------------------------------------------------------------------------
DATA16_SFR
  Relative segment, address: IDATA 0154 - 0155 (0x2 bytes), align: 0
  Segment part 6. ROOT 
           ENTRY                   ADDRESS         REF BY
           =====                   =======         ======
           _A_CNT2W1               0154 
    -------------------------------------------------------------------------
DATA16_SFR
  Relative segment, address: IDATA 0156 - 0157 (0x2 bytes), align: 0
  Segment part 7. ROOT 
           ENTRY                   ADDRESS         REF BY
           =====                   =======         ======
           _A_CNT2W2               0156 
    -------------------------------------------------------------------------
DATA16_SFR
  Relative segment, address: IDATA 0160 - 0160 (0x1 bytes), align: 0
  Segment part 8. ROOT 
           ENTRY                   ADDRESS         REF BY
           =====                   =======         ======
           SLA2W1                  0160 
    -------------------------------------------------------------------------
DATA16_SFR
  Relative segment, address: IDATA 0162 - 0162 (0x1 bytes), align: 0
  Segment part 9. ROOT 
           ENTRY                   ADDRESS         REF BY
           =====                   =======         ======
           SLA2W2                  0162 
    -------------------------------------------------------------------------
DATA16_SFR
  Relative segment, address: IDATA 0176 - 0177 (0x2 bytes), align: 0
  Segment part 10. ROOT 
           ENTRY                   ADDRESS         REF BY
           =====                   =======         ======
           _A_MIS2                 0176 
    -------------------------------------------------------------------------
DATA16_SFR
  Relative segment, address: IDATA 0178 - 0179 (0x2 bytes), align: 0
  Segment part 11. ROOT 
           ENTRY                   ADDRESS         REF BY
           =====                   =======         ======
           CCK2W1                  0178 
    -------------------------------------------------------------------------
DATA16_SFR
  Relative segment, address: IDATA 017A - 017B (0x2 bytes), align: 0
  Segment part 12. ROOT 
           ENTRY                   ADDRESS         REF BY
           =====                   =======         ======
           CCK2W2                  017A 
    -------------------------------------------------------------------------
DATA16_Z
  Relative segment, address: DATA 098E - 098E (0x1 bytes), align: 0
  Segment part 14.            Intra module refs:   I2CM_ReadNBytes
                                                   I2CM_WriteNBytes
                                                   Segment part 21
           ENTRY                   ADDRESS         REF BY
           =====                   =======         ======
           tx_rx_complete          098E 
    -------------------------------------------------------------------------
DATA16_Z
  Relative segment, address: DATA 098F - 098F (0x1 bytes), align: 0
  Segment part 15.            Intra module refs:   Segment part 21
           ENTRY                   ADDRESS         REF BY
           =====                   =======         ======
           interrupt_count         098F 
    -------------------------------------------------------------------------
<CODE> 3 (was CODE)
  Relative segment, address: CODE 91AE - 9269 (0xbc bytes), align: 1
  Segment part 16.
           ENTRY                   ADDRESS         REF BY
           =====                   =======         ======
           I2CM_Init               91AE            I2CMaster_Init (board)
    -------------------------------------------------------------------------
<CODE> 3 (was CODE)
  Relative segment, address: CODE 735E - 75D1 (0x274 bytes), align: 1
  Segment part 18.
           ENTRY                   ADDRESS         REF BY
           =====                   =======         ======
           I2CM_WriteNBytes        735E            confirm_write_master_gpio_multiple_bytes (i2c_master_gpio)
                                                   write_master_gpio_multiple_bytes (i2c_master_gpio)
                                                   write_master_gpio_single_byte (i2c_master_gpio)
               calls direct
               CSTACK = 00000000 ( 00000004 )
    -------------------------------------------------------------------------
<CODE> 3 (was CODE)
  Relative segment, address: CODE 75D2 - 787D (0x2ac bytes), align: 1
  Segment part 19.
           ENTRY                   ADDRESS         REF BY
           =====                   =======         ======
           I2CM_ReadNBytes         75D2            confirm_write_master_gpio_multiple_bytes (i2c_master_gpio)
                                                   read_master_gpio_multiple_bytes (i2c_master_gpio)
                                                   read_master_gpio_single_byte (i2c_master_gpio)
               calls direct
               CSTACK = 00000000 ( 00000004 )
    -------------------------------------------------------------------------
<CODE> 3 (was CODE)
  Relative segment, address: CODE 787E - 7945 (0xc8 bytes), align: 1
  Segment part 20.            Intra module refs:   I2CM_ReadNBytes
                                                   I2CM_WriteNBytes
    -------------------------------------------------------------------------
<CODE> 3 (was CODE)
  Relative segment, address: CODE 9876 - 98B3 (0x3e bytes), align: 1
  Segment part 21. ROOT 
           ENTRY                   ADDRESS         REF BY
           =====                   =======         ======
           ?ISR5                   9876            ?INTERRUPT5 (?INTERRUPT5)
           module_5_ISR            9876 
               interrupt function
               CSTACK = 00000000 ( 00000006 )

    *************************************************************************

  FILE NAME : D:\Projects\Coset\Project_SKT_SFP28_T_2020\3.SW\FW\SFP28_ER_V1_DML_APD\Debug\Obj\i2cs_asm.r66
  PROGRAM MODULE, NAME : i2cs_asm

  SEGMENTS IN THE MODULE
  ======================
<CODE> 3 (was CODE)
  Relative segment, address: CODE 9D56 - 9D75 (0x20 bytes), align: 1
  Segment part 2.
           ENTRY                   ADDRESS         REF BY
           =====                   =======         ======
           UpdateTxBuffer          9D56            Segment part 35 (i2cslave)
    -------------------------------------------------------------------------
<CODE> 3 (was CODE)
  Relative segment, address: CODE 9A26 - 9A61 (0x3c bytes), align: 1
  Segment part 3.
           ENTRY                   ADDRESS         REF BY
           =====                   =======         ======
           UpdateTxBuffer1_2       9A26            I2CS_Init (i2cslave)
    -------------------------------------------------------------------------
<CODE> 3 (was CODE)
  Relative segment, address: CODE 95A8 - 9613 (0x6c bytes), align: 1
  Segment part 4.
           ENTRY                   ADDRESS         REF BY
           =====                   =======         ======
           UpdateAllTxBuffers      95A8            Segment part 35 (i2cslave)
    -------------------------------------------------------------------------
<CODE> 3 (was CODE)
  Relative segment, address: CODE 9A62 - 9A9B (0x3a bytes), align: 1
  Segment part 5.
           ENTRY                   ADDRESS         REF BY
           =====                   =======         ======
           ReadI2CRxBuffer         9A62            I2C_Slave_Stop (i2cslave)
                                                   Segment part 35 (i2cslave)

    *************************************************************************

  FILE NAME : D:\Projects\Coset\Project_SKT_SFP28_T_2020\3.SW\FW\SFP28_ER_V1_DML_APD\Debug\Obj\i2cslave.r66
  PROGRAM MODULE, NAME : i2cslave

  SEGMENTS IN THE MODULE
  ======================
DATA16_SFR
  Relative segment, address: IDATA 0082 - 0083 (0x2 bytes), align: 0
  Segment part 1. ROOT 
           ENTRY                   ADDRESS         REF BY
           =====                   =======         ======
           _A_I2CST_S              0082 
    -------------------------------------------------------------------------
DATA16_SFR
  Relative segment, address: IDATA 0084 - 0085 (0x2 bytes), align: 0
  Segment part 2. ROOT 
           ENTRY                   ADDRESS         REF BY
           =====                   =======         ======
           _A_MPNTR                0084 
    -------------------------------------------------------------------------
DATA16_SFR
  Relative segment, address: IDATA 0086 - 0087 (0x2 bytes), align: 0
  Segment part 3. ROOT 
           ENTRY                   ADDRESS         REF BY
           =====                   =======         ======
           _A_I2CTXFST             0086 
    -------------------------------------------------------------------------
DATA16_SFR
  Relative segment, address: IDATA 0088 - 0089 (0x2 bytes), align: 0
  Segment part 4. ROOT 
           ENTRY                   ADDRESS         REF BY
           =====                   =======         ======
           _A_I2CTXFIE             0088 
    -------------------------------------------------------------------------
DATA16_SFR
  Relative segment, address: IDATA 008A - 008B (0x2 bytes), align: 0
  Segment part 5. ROOT 
           ENTRY                   ADDRESS         REF BY
           =====                   =======         ======
           _A_I2CRXFST             008A 
    -------------------------------------------------------------------------
DATA16_SFR
  Relative segment, address: IDATA 008C - 008D (0x2 bytes), align: 0
  Segment part 6. ROOT 
           ENTRY                   ADDRESS         REF BY
           =====                   =======         ======
           _A_I2CRXFIE             008C 
    -------------------------------------------------------------------------
DATA16_SFR
  Relative segment, address: IDATA 008E - 008F (0x2 bytes), align: 0
  Segment part 7. ROOT 
           ENTRY                   ADDRESS         REF BY
           =====                   =======         ======
           _A_I2CST2_S             008E 
    -------------------------------------------------------------------------
DATA16_SFR
  Relative segment, address: IDATA 0092 - 0093 (0x2 bytes), align: 0
  Segment part 8. ROOT 
           ENTRY                   ADDRESS         REF BY
           =====                   =======         ======
           _A_I2CCN_S              0092 
    -------------------------------------------------------------------------
DATA16_SFR
  Relative segment, address: IDATA 0098 - 0099 (0x2 bytes), align: 0
  Segment part 9. ROOT 
           ENTRY                   ADDRESS         REF BY
           =====                   =======         ======
           _A_I2CSLA_S             0098 
    -------------------------------------------------------------------------
DATA16_SFR
  Relative segment, address: IDATA 009A - 009B (0x2 bytes), align: 0
  Segment part 10. ROOT 
           ENTRY                   ADDRESS         REF BY
           =====                   =======         ======
           _A_I2CSLA2_S            009A 
    -------------------------------------------------------------------------
DATA16_SFR
  Relative segment, address: IDATA 00A0 - 00A1 (0x2 bytes), align: 0
  Segment part 11. ROOT 
           ENTRY                   ADDRESS         REF BY
           =====                   =======         ======
           _A_I2CIE2_S             00A0 
    -------------------------------------------------------------------------
DATA16_SFR
  Relative segment, address: IDATA 00A2 - 00A3 (0x2 bytes), align: 0
  Segment part 12. ROOT 
           ENTRY                   ADDRESS         REF BY
           =====                   =======         ======
           _A_MADDR                00A2 
    -------------------------------------------------------------------------
DATA16_SFR
  Relative segment, address: IDATA 00A4 - 00A5 (0x2 bytes), align: 0
  Segment part 13. ROOT 
           ENTRY                   ADDRESS         REF BY
           =====                   =======         ======
           _A_MADDR2               00A4 
    -------------------------------------------------------------------------
DATA16_SFR
  Relative segment, address: IDATA 00AA - 00AB (0x2 bytes), align: 0
  Segment part 14. ROOT 
           ENTRY                   ADDRESS         REF BY
           =====                   =======         ======
           _A_CUR_SLA              00AA 
    -------------------------------------------------------------------------
DATA16_SFR
  Relative segment, address: IDATA 00AC - 00AD (0x2 bytes), align: 0
  Segment part 15. ROOT 
           ENTRY                   ADDRESS         REF BY
           =====                   =======         ======
           _A_I2CIE_S              00AC 
    -------------------------------------------------------------------------
DATA16_AN
  Relative segment, address: DATA 0780 - 07FF (0x80 bytes), align: 0
  Segment part 26. ROOT       Intra module refs:   I2C_Slave_Buffer_A2_P83H_Up
           ENTRY                   ADDRESS         REF BY
           =====                   =======         ======
           I2C_Slave_Buffer_A2_P82H_Up
                                   0780 
    -------------------------------------------------------------------------
DATA16_AN
  Relative segment, address: DATA 0800 - 087F (0x80 bytes), align: 0
  Segment part 27. ROOT       Intra module refs:   I2C_Slave_Buffer_A2_P84H_Up
           ENTRY                   ADDRESS         REF BY
           =====                   =======         ======
           I2C_Slave_Buffer_A2_P83H_Up
                                   0800 
    -------------------------------------------------------------------------
DATA16_AN
  Relative segment, address: DATA 0880 - 08FF (0x80 bytes), align: 0
  Segment part 28. ROOT       Intra module refs:   Rx_Count
           ENTRY                   ADDRESS         REF BY
           =====                   =======         ======
           I2C_Slave_Buffer_A2_P84H_Up
                                   0880 
    -------------------------------------------------------------------------
DATA16_AN
  Relative segment, address: DATA 0080 - 0081 (0x2 bytes), align: 0
  Segment part 29. ROOT       Intra module refs:   Mem_Address
           ENTRY                   ADDRESS         REF BY
           =====                   =======         ======
           Rx_Count                0080 
    -------------------------------------------------------------------------
DATA16_AN
  Relative segment, address: DATA 0082 - 0083 (0x2 bytes), align: 0
  Segment part 30. ROOT       Intra module refs:   FlashData_A0_Const (main)
           ENTRY                   ADDRESS         REF BY
           =====                   =======         ======
           Mem_Address             0082 
    -------------------------------------------------------------------------
DATA16_Z
  Relative segment, address: DATA 0990 - 0990 (0x1 bytes), align: 0
  Segment part 32.            Intra module refs:   Segment part 35
    -------------------------------------------------------------------------
<CODE> 3 (was CODE)
  Relative segment, address: CODE 93BE - 944F (0x92 bytes), align: 1
  Segment part 33.
           ENTRY                   ADDRESS         REF BY
           =====                   =======         ======
           I2CS_Init               93BE            main (main)
               calls direct
               CSTACK = 00000000 ( 00000002 )
    -------------------------------------------------------------------------
<CODE> 3 (was CODE)
  Relative segment, address: CODE 8282 - 836F (0xee bytes), align: 1
  Segment part 34.            Intra module refs:   Segment part 35
    -------------------------------------------------------------------------
<CODE> 3 (was CODE)
  Relative segment, address: CODE 8370 - 85BF (0x250 bytes), align: 1
  Segment part 35. ROOT 
           ENTRY                   ADDRESS         REF BY
           =====                   =======         ======
           ?ISR2                   8370            ?INTERRUPT2 (?INTERRUPT2)
           I2CS_Interrupt          8370 
               interrupt function
               calls direct
               CSTACK = 00000000 ( 00000020 )

    *************************************************************************

  FILE NAME : D:\Projects\Coset\Project_SKT_SFP28_T_2020\3.SW\FW\SFP28_ER_V1_DML_APD\Debug\Obj\initialization.r66
  PROGRAM MODULE, NAME : initialization

  SEGMENTS IN THE MODULE
  ======================
<CODE> 3 (was CODE)
  Relative segment, address: CODE 9B7A - 9B91 (0x18 bytes), align: 1
  Segment part 2.             Intra module refs:   Initialization
           ENTRY                   ADDRESS         REF BY
           =====                   =======         ======
           Board_Init              9B7A 
               calls direct
               CSTACK = 00000000 ( 00000002 )
    -------------------------------------------------------------------------
<CODE> 3 (was CODE)
  Relative segment, address: CODE 9B92 - 9BAB (0x1a bytes), align: 1
  Segment part 3.
           ENTRY                   ADDRESS         REF BY
           =====                   =======         ======
           Initialization          9B92            main (main)
               calls direct
               CSTACK = 00000000 ( 00000002 )

    *************************************************************************

  FILE NAME : D:\Projects\Coset\Project_SKT_SFP28_T_2020\3.SW\FW\SFP28_ER_V1_DML_APD\Debug\Obj\isr.r66
  LIBRARY MODULE, NAME : __INTERRUPTS

  SEGMENTS IN THE MODULE
  ======================
RCODE
  Relative segment, address: CODE 0040 - 0047 (0x8 bytes), align: 1
  Segment part 1.
           ENTRY                   ADDRESS         REF BY
           =====                   =======         ======
           ?isr                    0040            ?INTERRUPT0 (?INTERRUPT0)
                                                   ?INTERRUPT2 (?INTERRUPT2)
                                                   ?INTERRUPT4 (?INTERRUPT4)
                                                   ?INTERRUPT5 (?INTERRUPT5)
                                                   ?init_isr (INIT_IV)

    -------------------------------------------------------------------------
  LIBRARY MODULE, NAME : ?INTERRUPT2

  SEGMENTS IN THE MODULE
  ======================
RCODE
  Relative segment, address: CODE 0048 - 004F (0x8 bytes), align: 1
  Segment part 1.
           ENTRY                   ADDRESS         REF BY
           =====                   =======         ======
           ?INTERRUPT2             0048            Segment part 35 (i2cslave)

    -------------------------------------------------------------------------
  LIBRARY MODULE, NAME : ?INTERRUPT0

  SEGMENTS IN THE MODULE
  ======================
RCODE
  Relative segment, address: CODE 0050 - 0063 (0x14 bytes), align: 1
  Segment part 1.
           ENTRY                   ADDRESS         REF BY
           =====                   =======         ======
           ?INTERRUPT0             0050            Segment part 50 (board)

    -------------------------------------------------------------------------
  LIBRARY MODULE, NAME : ?INTERRUPT4

  SEGMENTS IN THE MODULE
  ======================
RCODE
  Relative segment, address: CODE 0064 - 0077 (0x14 bytes), align: 1
  Segment part 1.
           ENTRY                   ADDRESS         REF BY
           =====                   =======         ======
           ?INTERRUPT4             0064            Segment part 36 (ddm)

    -------------------------------------------------------------------------
  LIBRARY MODULE, NAME : ?INTERRUPT5

  SEGMENTS IN THE MODULE
  ======================
RCODE
  Relative segment, address: CODE 0078 - 008B (0x14 bytes), align: 1
  Segment part 1.
           ENTRY                   ADDRESS         REF BY
           =====                   =======         ======
           ?INTERRUPT5             0078            Segment part 21 (i2cm)

    -------------------------------------------------------------------------
  LIBRARY MODULE, NAME : ?INTERRUPT_ERROR

  SEGMENTS IN THE MODULE
  ======================
RCODE
  Relative segment, address: CODE 008C - 0095 (0xa bytes), align: 1
  Segment part 1.
           ENTRY                   ADDRESS         REF BY
           =====                   =======         ======
           ?UNHANDLED_INTERRUPT    008C            ?isr (__INTERRUPTS)

    *************************************************************************

  FILE NAME : D:\Projects\Coset\Project_SKT_SFP28_T_2020\3.SW\FW\SFP28_ER_V1_DML_APD\Debug\Obj\lowinit.r66
  PROGRAM MODULE, NAME : lowinit

  SEGMENTS IN THE MODULE
  ======================
<CODE> 3 (was CODE)
  Relative segment, address: CODE 9DE6 - 9DFD (0x18 bytes), align: 1
  Segment part 3. ROOT 
           ENTRY                   ADDRESS         REF BY
           =====                   =======         ======
           __low_level_init        9DE6            ?cstart_call_low_level_init (CALL_INIT)

    *************************************************************************

  FILE NAME : D:\Projects\Coset\Project_SKT_SFP28_T_2020\3.SW\FW\SFP28_ER_V1_DML_APD\Debug\Obj\main.r66
  PROGRAM MODULE, NAME : main

  SEGMENTS IN THE MODULE
  ======================
DATA16_AC
  Relative segment, address: CODE EE00 - EE7F (0x80 bytes), align: 0
  Segment part 18. ROOT       Intra module refs:   FlashDataUeserEEPROM
           ENTRY                   ADDRESS         REF BY
           =====                   =======         ======
           FlashData_A0_Const      EE00 
    -------------------------------------------------------------------------
DATA16_AC
  Relative segment, address: CODE F000 - F07F (0x80 bytes), align: 0
  Segment part 19. ROOT       Intra module refs:   FlashDataA2_Const
           ENTRY                   ADDRESS         REF BY
           =====                   =======         ======
           FlashDataUeserEEPROM    F000 
    -------------------------------------------------------------------------
DATA16_AC
  Relative segment, address: CODE EF00 - EF7F (0x80 bytes), align: 0
  Segment part 20. ROOT       Intra module refs:   password
           ENTRY                   ADDRESS         REF BY
           =====                   =======         ======
           FlashDataA2_Const       EF00 
    -------------------------------------------------------------------------
DATA16_AC
  Relative segment, address: CODE 0020 - 003F (0x20 bytes), align: 0
  Segment part 21. ROOT       Intra module refs:   main
           ENTRY                   ADDRESS         REF BY
           =====                   =======         ======
           password                0020 
    -------------------------------------------------------------------------
<CODE> 3 (was CODE)
  Relative segment, address: CODE 9CAA - 9CCD (0x24 bytes), align: 1
  Segment part 23.
           ENTRY                   ADDRESS         REF BY
           =====                   =======         ======
           main                    9CAA            __MAIN_CALL (__MAIN_CALL__)
               calls direct
               CSTACK = 00000000 ( 00000002 )

    *************************************************************************

  FILE NAME : D:\Projects\Coset\Project_SKT_SFP28_T_2020\3.SW\FW\SFP28_ER_V1_DML_APD\Debug\Obj\mcu_convert.r66
  PROGRAM MODULE, NAME : mcu_convert

  SEGMENTS IN THE MODULE
  ======================
DATA16_Z
  Relative segment, address: DATA 0991 - 09A0 (0x10 bytes), align: 0
  Segment part 19.            Intra module refs:   initialize_variables
                                                   restore_from_flash_memory
                                                   save_to_flash_memory
           ENTRY                   ADDRESS         REF BY
           =====                   =======         ======
           page_password_enable    0991            I2C_Slave_Memory_Map_Write (memory_access)
                                                   check_password_control (memory_access)
    -------------------------------------------------------------------------
DATA16_Z
  Relative segment, address: DATA 090C - 090F (0x4 bytes), align: 1
  Segment part 20.            Intra module refs:   restore_memory_from_flash_all
           ENTRY                   ADDRESS         REF BY
           =====                   =======         ======
           current_password        090C            I2C_Slave_Memory_Map_Write (memory_access)
                                                   check_password_control (memory_access)
    -------------------------------------------------------------------------
DATA16_Z
  Relative segment, address: DATA 0910 - 0913 (0x4 bytes), align: 1
  Segment part 21.            Intra module refs:   restore_memory_from_flash_all
           ENTRY                   ADDRESS         REF BY
           =====                   =======         ======
           fixed_side_password     0910            check_password_control (memory_access)
    -------------------------------------------------------------------------
DATA16_Z
  Relative segment, address: DATA 09A1 - 09A1 (0x1 bytes), align: 0
  Segment part 23.            Intra module refs:   initialize_variables
           ENTRY                   ADDRESS         REF BY
           =====                   =======         ======
           page_vendor_control     09A1            I2C_Slave_Memory_Map_Write (memory_access)
                                                   check_password_control (memory_access)
    -------------------------------------------------------------------------
DATA16_Z
  Relative segment, address: DATA 0914 - 0915 (0x2 bytes), align: 1
  Segment part 24.
           ENTRY                   ADDRESS         REF BY
           =====                   =======         ======
           bset_dac_ch_no          0914            LdControl_APC_3 (tosa_control)
    -------------------------------------------------------------------------
DATA16_Z
  Relative segment, address: DATA 0916 - 0917 (0x2 bytes), align: 1
  Segment part 27.
           ENTRY                   ADDRESS         REF BY
           =====                   =======         ======
           LdBiasDa                0916            LdControl_APC_3 (tosa_control)
                                                   LdControl_manually (tosa_control)
    -------------------------------------------------------------------------
DATA16_Z
  Relative segment, address: DATA 0918 - 0919 (0x2 bytes), align: 1
  Segment part 30.
           ENTRY                   ADDRESS         REF BY
           =====                   =======         ======
           prevLdBiasDa            0918            LdControl_APC_3 (tosa_control)
                                                   LdControl_manually (tosa_control)
                                                   Ld_Ch_seq_init (tosa_control)
                                                   check_n_recover_cdr_fault_or_hw_reset (tosa_control)
                                                   exec_upper_page2_memory (memory_access)
    -------------------------------------------------------------------------
DATA16_Z
  Relative segment, address: DATA 09A2 - 09A2 (0x1 bytes), align: 0
  Segment part 31.
           ENTRY                   ADDRESS         REF BY
           =====                   =======         ======
           LdBiasSetFlag           09A2            LdControl (tosa_control)
                                                   LdInit (tosa_control)
    -------------------------------------------------------------------------
DATA16_Z
  Relative segment, address: DATA 09A3 - 09A3 (0x1 bytes), align: 0
  Segment part 32.
           ENTRY                   ADDRESS         REF BY
           =====                   =======         ======
           LdBiasSetFlag2          09A3            LdInit_forced_on_first (tosa_control)
    -------------------------------------------------------------------------
DATA16_Z
  Relative segment, address: DATA 09A4 - 09A4 (0x1 bytes), align: 0
  Segment part 33.            Intra module refs:   load_init_data_from_flash
                                                   store_data_to_flash
           ENTRY                   ADDRESS         REF BY
           =====                   =======         ======
           LdControlMode           09A4            exec_upper_page80H_memory (memory_access)
    -------------------------------------------------------------------------
DATA16_Z
  Relative segment, address: DATA 091A - 091B (0x2 bytes), align: 1
  Segment part 34.            Intra module refs:   load_init_data_from_flash
                                                   store_data_to_flash
           ENTRY                   ADDRESS         REF BY
           =====                   =======         ======
           ModBiasSet              091A            ModBiasControl_manually (tosa_control)
                                                   exec_upper_page2_memory (memory_access)
                                                   exec_upper_page80H_memory (memory_access)
    -------------------------------------------------------------------------
DATA16_Z
  Relative segment, address: DATA 091C - 091D (0x2 bytes), align: 1
  Segment part 35.            Intra module refs:   load_init_data_from_flash
                                                   store_data_to_flash
           ENTRY                   ADDRESS         REF BY
           =====                   =======         ======
           XconBiasSet             091C            XconBiasControl (tosa_control)
                                                   exec_upper_page2_memory (memory_access)
                                                   exec_upper_page80H_memory (memory_access)
    -------------------------------------------------------------------------
DATA16_Z
  Relative segment, address: DATA 091E - 091F (0x2 bytes), align: 1
  Segment part 36.            Intra module refs:   load_init_data_from_flash
                                                   store_data_to_flash
           ENTRY                   ADDRESS         REF BY
           =====                   =======         ======
           forcedLdBiasSet         091E            LdControl_manually (tosa_control)
                                                   exec_upper_page2_memory (memory_access)
                                                   exec_upper_page80H_memory (memory_access)
    -------------------------------------------------------------------------
DATA16_Z
  Relative segment, address: DATA 0920 - 0921 (0x2 bytes), align: 1
  Segment part 37.
           ENTRY                   ADDRESS         REF BY
           =====                   =======         ======
           ModBiasDa               0920            ModBiasControl_APC_3 (tosa_control)
                                                   ModBiasControl_manually (tosa_control)
    -------------------------------------------------------------------------
DATA16_Z
  Relative segment, address: DATA 0922 - 0923 (0x2 bytes), align: 1
  Segment part 38.
           ENTRY                   ADDRESS         REF BY
           =====                   =======         ======
           XconBiasDa              0922            XconBiasControl (tosa_control)
    -------------------------------------------------------------------------
DATA16_Z
  Relative segment, address: DATA 0924 - 0925 (0x2 bytes), align: 1
  Segment part 39.
           ENTRY                   ADDRESS         REF BY
           =====                   =======         ======
           prevModBiasDa           0924            Ld_Ch_seq_init (tosa_control)
                                                   ModBiasControl_APC_3 (tosa_control)
                                                   ModBiasControl_manually (tosa_control)
                                                   check_n_recover_cdr_fault_or_hw_reset (tosa_control)
                                                   exec_upper_page2_memory (memory_access)
    -------------------------------------------------------------------------
DATA16_Z
  Relative segment, address: DATA 0926 - 0927 (0x2 bytes), align: 1
  Segment part 40.
           ENTRY                   ADDRESS         REF BY
           =====                   =======         ======
           prevXconBiasDa          0926            Ld_Ch_seq_init (tosa_control)
                                                   XconBiasControl (tosa_control)
                                                   check_n_recover_cdr_fault_or_hw_reset (tosa_control)
                                                   exec_upper_page2_memory (memory_access)
    -------------------------------------------------------------------------
DATA16_Z
  Relative segment, address: DATA 0928 - 0929 (0x2 bytes), align: 1
  Segment part 41.
           ENTRY                   ADDRESS         REF BY
           =====                   =======         ======
           TEC_Control_Da          0928            TEC_Control_APC_3 (tosa_control)
    -------------------------------------------------------------------------
DATA16_Z
  Relative segment, address: DATA 092A - 092B (0x2 bytes), align: 1
  Segment part 42.
           ENTRY                   ADDRESS         REF BY
           =====                   =======         ======
           prev_TEC_Control_Da     092A            TEC_Control_APC_3 (tosa_control)
    -------------------------------------------------------------------------
DATA16_Z
  Relative segment, address: DATA 092C - 092F (0x4 bytes), align: 1
  Segment part 43.            Intra module refs:   load_init_data_from_flash
           ENTRY                   ADDRESS         REF BY
           =====                   =======         ======
           txPower_coeff_0         092C            ddm_mon_tx_power (state_transition)
                                                   exec_upper_page81H_memory (memory_access)
    -------------------------------------------------------------------------
DATA16_Z
  Relative segment, address: DATA 0930 - 0933 (0x4 bytes), align: 1
  Segment part 44.            Intra module refs:   load_init_data_from_flash
           ENTRY                   ADDRESS         REF BY
           =====                   =======         ======
           txPower_coeff_1         0930            ddm_mon_tx_power (state_transition)
                                                   exec_upper_page81H_memory (memory_access)
    -------------------------------------------------------------------------
DATA16_Z
  Relative segment, address: DATA 0934 - 0937 (0x4 bytes), align: 1
  Segment part 45.            Intra module refs:   load_init_data_from_flash
           ENTRY                   ADDRESS         REF BY
           =====                   =======         ======
           rxPower_coeff_0         0934            ddm_mon_rx_power (state_transition)
                                                   exec_upper_page81H_memory (memory_access)
    -------------------------------------------------------------------------
DATA16_Z
  Relative segment, address: DATA 0938 - 093B (0x4 bytes), align: 1
  Segment part 46.            Intra module refs:   load_init_data_from_flash
           ENTRY                   ADDRESS         REF BY
           =====                   =======         ======
           rxPower_coeff_1         0938            ddm_mon_rx_power (state_transition)
                                                   exec_upper_page81H_memory (memory_access)
    -------------------------------------------------------------------------
DATA16_Z
  Relative segment, address: DATA 093C - 093F (0x4 bytes), align: 1
  Segment part 47.            Intra module refs:   load_init_data_from_flash
           ENTRY                   ADDRESS         REF BY
           =====                   =======         ======
           rxPower_coeff_2         093C            ddm_mon_rx_power (state_transition)
                                                   exec_upper_page81H_memory (memory_access)
    -------------------------------------------------------------------------
DATA16_Z
  Relative segment, address: DATA 0940 - 0943 (0x4 bytes), align: 1
  Segment part 48.            Intra module refs:   load_init_data_from_flash
           ENTRY                   ADDRESS         REF BY
           =====                   =======         ======
           rxPower_coeff_3         0940            ddm_mon_rx_power (state_transition)
                                                   exec_upper_page81H_memory (memory_access)
    -------------------------------------------------------------------------
DATA16_Z
  Relative segment, address: DATA 0944 - 0947 (0x4 bytes), align: 1
  Segment part 49.            Intra module refs:   load_init_data_from_flash
           ENTRY                   ADDRESS         REF BY
           =====                   =======         ======
           rxPower_coeff_4         0944            ddm_mon_rx_power (state_transition)
                                                   exec_upper_page81H_memory (memory_access)
    -------------------------------------------------------------------------
DATA16_Z
  Relative segment, address: DATA 0948 - 094B (0x4 bytes), align: 1
  Segment part 50.
           ENTRY                   ADDRESS         REF BY
           =====                   =======         ======
           ext_calib_txPower_coeff_1
                                   0948            exec_lower_page_memory (memory_access)
    -------------------------------------------------------------------------
DATA16_Z
  Relative segment, address: DATA 094C - 094D (0x2 bytes), align: 1
  Segment part 51.
           ENTRY                   ADDRESS         REF BY
           =====                   =======         ======
           ext_calib_txPower_coeff_0
                                   094C            exec_lower_page_memory (memory_access)
    -------------------------------------------------------------------------
DATA16_Z
  Relative segment, address: DATA 094E - 0951 (0x4 bytes), align: 1
  Segment part 52.
           ENTRY                   ADDRESS         REF BY
           =====                   =======         ======
           ext_calib_rxPower_coeff_0
                                   094E            exec_lower_page_memory (memory_access)
    -------------------------------------------------------------------------
DATA16_Z
  Relative segment, address: DATA 0952 - 0955 (0x4 bytes), align: 1
  Segment part 53.
           ENTRY                   ADDRESS         REF BY
           =====                   =======         ======
           ext_calib_rxPower_coeff_1
                                   0952            exec_lower_page_memory (memory_access)
    -------------------------------------------------------------------------
DATA16_Z
  Relative segment, address: DATA 0956 - 0959 (0x4 bytes), align: 1
  Segment part 54.
           ENTRY                   ADDRESS         REF BY
           =====                   =======         ======
           ext_calib_rxPower_coeff_2
                                   0956            exec_lower_page_memory (memory_access)
    -------------------------------------------------------------------------
DATA16_Z
  Relative segment, address: DATA 095A - 095D (0x4 bytes), align: 1
  Segment part 55.
           ENTRY                   ADDRESS         REF BY
           =====                   =======         ======
           ext_calib_rxPower_coeff_3
                                   095A            exec_lower_page_memory (memory_access)
    -------------------------------------------------------------------------
DATA16_Z
  Relative segment, address: DATA 095E - 0961 (0x4 bytes), align: 1
  Segment part 56.
           ENTRY                   ADDRESS         REF BY
           =====                   =======         ======
           ext_calib_rxPower_coeff_4
                                   095E            exec_lower_page_memory (memory_access)
    -------------------------------------------------------------------------
DATA16_Z
  Relative segment, address: DATA 0962 - 0965 (0x4 bytes), align: 1
  Segment part 57.
           ENTRY                   ADDRESS         REF BY
           =====                   =======         ======
           ext_calib_Tx_I_Slope    0962            exec_lower_page_memory (memory_access)
    -------------------------------------------------------------------------
DATA16_Z
  Relative segment, address: DATA 0966 - 0967 (0x2 bytes), align: 1
  Segment part 58.
           ENTRY                   ADDRESS         REF BY
           =====                   =======         ======
           ext_calib_Tx_I_Offset   0966            exec_lower_page_memory (memory_access)
    -------------------------------------------------------------------------
DATA16_Z
  Relative segment, address: DATA 0968 - 096B (0x4 bytes), align: 1
  Segment part 59.
           ENTRY                   ADDRESS         REF BY
           =====                   =======         ======
           ext_calib_Temp_Slope    0968            exec_lower_page_memory (memory_access)
    -------------------------------------------------------------------------
DATA16_Z
  Relative segment, address: DATA 096C - 096D (0x2 bytes), align: 1
  Segment part 60.
           ENTRY                   ADDRESS         REF BY
           =====                   =======         ======
           ext_calib_Temp_Offset   096C            exec_lower_page_memory (memory_access)
    -------------------------------------------------------------------------
DATA16_Z
  Relative segment, address: DATA 096E - 0971 (0x4 bytes), align: 1
  Segment part 61.
           ENTRY                   ADDRESS         REF BY
           =====                   =======         ======
           ext_calib_Vcc_Slope     096E            exec_lower_page_memory (memory_access)
    -------------------------------------------------------------------------
DATA16_Z
  Relative segment, address: DATA 0972 - 0973 (0x2 bytes), align: 1
  Segment part 62.
           ENTRY                   ADDRESS         REF BY
           =====                   =======         ======
           ext_calib_Vcc_Offset    0972            exec_lower_page_memory (memory_access)
    -------------------------------------------------------------------------
DATA16_Z
  Relative segment, address: DATA 0974 - 0975 (0x2 bytes), align: 1
  Segment part 63.            Intra module refs:   initialize_variables
           ENTRY                   ADDRESS         REF BY
           =====                   =======         ======
           write_i2c_count         0974            MasterI2CArbitration (board)
                                                   insert_write_entry (memory_access)
                                                   polled_write_entry (memory_access)
    -------------------------------------------------------------------------
DATA16_Z
  Relative segment, address: DATA 0976 - 0977 (0x2 bytes), align: 1
  Segment part 64.            Intra module refs:   initialize_variables
           ENTRY                   ADDRESS         REF BY
           =====                   =======         ======
           read_i2c_count          0976            polled_write_entry (memory_access)
    -------------------------------------------------------------------------
DATA16_Z
  Relative segment, address: DATA 0978 - 0979 (0x2 bytes), align: 1
  Segment part 65.            Intra module refs:   load_init_data_from_flash
           ENTRY                   ADDRESS         REF BY
           =====                   =======         ======
           curr_channel_no         0978            LdControl_APC_3 (tosa_control)
                                                   ModBiasControl_APC_3 (tosa_control)
                                                   TEC_Control_APC_3 (tosa_control)
                                                   exec_upper_page2_memory (memory_access)
                                                   exec_upper_page81H_memory (memory_access)
                                                   high_power_up_action (state_transition)
    -------------------------------------------------------------------------
DATA16_Z
  Relative segment, address: DATA 097A - 097B (0x2 bytes), align: 1
  Segment part 67.            Intra module refs:   initialize_variables
           ENTRY                   ADDRESS         REF BY
           =====                   =======         ======
           sfp28_module_state      097A            detect_cdr_alarm (state_transition)
                                                   sfp28_state_high_power_down (state_transition)
                                                   state_transition_control (state_transition)
                                                   update_sfp28_state (state_transition)
    -------------------------------------------------------------------------
DATA16_Z
  Relative segment, address: DATA 09A5 - 09A5 (0x1 bytes), align: 0
  Segment part 68.            Intra module refs:   initialize_variables
           ENTRY                   ADDRESS         REF BY
           =====                   =======         ======
           already_act_reset_flag
                                   09A5            sfp28_state_reset (state_transition)
    -------------------------------------------------------------------------
DATA16_Z
  Relative segment, address: DATA 09A6 - 09A6 (0x1 bytes), align: 0
  Segment part 69.            Intra module refs:   initialize_variables
           ENTRY                   ADDRESS         REF BY
           =====                   =======         ======
           main_idx                09A6            state_transition_control (state_transition)
    -------------------------------------------------------------------------
DATA16_Z
  Relative segment, address: DATA 09A7 - 09A7 (0x1 bytes), align: 0
  Segment part 70.            Intra module refs:   initialize_variables
           ENTRY                   ADDRESS         REF BY
           =====                   =======         ======
           main_sigNo              09A7            state_transition_control (state_transition)
    -------------------------------------------------------------------------
DATA16_Z
  Relative segment, address: DATA 09A8 - 09A8 (0x1 bytes), align: 0
  Segment part 71.            Intra module refs:   initialize_variables
           ENTRY                   ADDRESS         REF BY
           =====                   =======         ======
           high_power_up_action_flag
                                   09A8            sfp28_state_fault (state_transition)
                                                   sfp28_state_high_power_down (state_transition)
                                                   sfp28_state_high_power_up (state_transition)
    -------------------------------------------------------------------------
DATA16_Z
  Relative segment, address: DATA 097C - 097D (0x2 bytes), align: 1
  Segment part 85.
           ENTRY                   ADDRESS         REF BY
           =====                   =======         ======
           sfp28_module_debug_run_state
                                   097C            state_transition_control (state_transition)
    -------------------------------------------------------------------------
DATA16_Z
  Relative segment, address: DATA 09A9 - 09A9 (0x1 bytes), align: 0
  Segment part 86.            Intra module refs:   initialize_variables
           ENTRY                   ADDRESS         REF BY
           =====                   =======         ======
           vendor_specific_pin_control_config
                                   09A9 
    -------------------------------------------------------------------------
DATA16_Z
  Relative segment, address: DATA 09AA - 09AA (0x1 bytes), align: 0
  Segment part 87.            Intra module refs:   initialize_variables
           ENTRY                   ADDRESS         REF BY
           =====                   =======         ======
           tx_dis_flag_before_isr
                                   09AA            LD_Drive_Set (tosa_control)
                                                   forced_TX_DISABLE_OFF (state_transition)
                                                   forced_TX_DISABLE_ON (state_transition)
    -------------------------------------------------------------------------
DATA16_Z
  Relative segment, address: DATA 09AB - 09AB (0x1 bytes), align: 0
  Segment part 88.            Intra module refs:   initialize_variables
           ENTRY                   ADDRESS         REF BY
           =====                   =======         ======
           tx_dis_flag_after_isr   09AB            LD_Drive_Set (tosa_control)
                                                   forced_TX_DISABLE_OFF (state_transition)
                                                   forced_TX_DISABLE_ON (state_transition)
                                                   turn_on_tx_network_lanes (state_transition)
    -------------------------------------------------------------------------
DATA16_Z
  Relative segment, address: DATA 097E - 0981 (0x4 bytes), align: 1
  Segment part 89.
           ENTRY                   ADDRESS         REF BY
           =====                   =======         ======
           itemp_ht_slope          097E            TempCalibration_adjusted (ddm)
                                                   cal_Temp_Slope_Offset (state_transition)
    -------------------------------------------------------------------------
DATA16_Z
  Relative segment, address: DATA 0982 - 0985 (0x4 bytes), align: 1
  Segment part 90.
           ENTRY                   ADDRESS         REF BY
           =====                   =======         ======
           itemp_ht_offset         0982            TempCalibration_adjusted (ddm)
                                                   cal_Temp_Slope_Offset (state_transition)
    -------------------------------------------------------------------------
DATA16_Z
  Relative segment, address: DATA 0986 - 0989 (0x4 bytes), align: 1
  Segment part 91.
           ENTRY                   ADDRESS         REF BY
           =====                   =======         ======
           itemp_lt_slope          0986            TempCalibration_adjusted (ddm)
                                                   cal_Temp_Slope_Offset (state_transition)
    -------------------------------------------------------------------------
DATA16_Z
  Relative segment, address: DATA 098A - 098D (0x4 bytes), align: 1
  Segment part 92.
           ENTRY                   ADDRESS         REF BY
           =====                   =======         ======
           itemp_lt_offset         098A            TempCalibration_adjusted (ddm)
                                                   cal_Temp_Slope_Offset (state_transition)
    -------------------------------------------------------------------------
DATA16_Z
  Relative segment, address: DATA 09AC - 09BB (0x10 bytes), align: 0
  Segment part 93.
           ENTRY                   ADDRESS         REF BY
           =====                   =======         ======
           tx_i2c_master_data      09AC            LD_Drive_Get (tosa_control)
                                                   LD_Drive_Set (tosa_control)
                                                   LdInit_forced_on_first (tosa_control)
                                                   cdr_pmic_ch_control_reinit (tosa_control)
                                                   cdr_power_management_init (tosa_control)
                                                   high_power_up_action (state_transition)
                                                   polled_tx_rx_combo_cdr_reg_info (tosa_control)
                                                   rate_select_control_cdr (tosa_control)
                                                   tx_cdr_init (tosa_control)
                                                   tx_cdr_init_from_flash (tosa_control)
    -------------------------------------------------------------------------
DATA16_Z
  Relative segment, address: DATA 09BC - 09CB (0x10 bytes), align: 0
  Segment part 94.            Intra module refs:   rx_cdr_forced_mute_enable
                                                   rx_cdr_init
                                                   rx_cdr_init_from_flash
           ENTRY                   ADDRESS         REF BY
           =====                   =======         ======
           rx_i2c_master_data      09BC 
    -------------------------------------------------------------------------
<CODE> 3 (was CODE)
  Relative segment, address: CODE 4316 - 44A1 (0x18c bytes), align: 1
  Segment part 95.
           ENTRY                   ADDRESS         REF BY
           =====                   =======         ======
           restore_from_flash_memory
                                   4316            exec_upper_page80H_memory (memory_access)
               calls direct
               CSTACK = 00000000 ( 00000004 )
    -------------------------------------------------------------------------
<CODE> 3 (was CODE)
  Relative segment, address: CODE 44A2 - 44B3 (0x12 bytes), align: 1
  Segment part 96.            Intra module refs:   factory_reset_eeprom_info
                                                   save_memory_to_flash_tx_rx_cdr
                                                   save_to_flash_memory
                                                   store_data_to_flash
           ENTRY                   ADDRESS         REF BY
           =====                   =======         ======
           FLASH_Update            44A2 
               calls direct
               CSTACK = 00000000 ( 00000002 )
    -------------------------------------------------------------------------
<CODE> 3 (was CODE)
  Relative segment, address: CODE 44B4 - 44C5 (0x12 bytes), align: 1
  Segment part 97.            Intra module refs:   factory_reset_eeprom_info
                                                   restore_from_flash_memory
                                                   restore_memory_from_flash_all
                                                   rx_cdr_init_from_flash
           ENTRY                   ADDRESS         REF BY
           =====                   =======         ======
           FLASH_Read              44B4            tx_cdr_init_from_flash (tosa_control)
               calls direct
               CSTACK = 00000000 ( 00000002 )
    -------------------------------------------------------------------------
<CODE> 3 (was CODE)
  Relative segment, address: CODE 44C6 - 4635 (0x170 bytes), align: 1
  Segment part 98.
           ENTRY                   ADDRESS         REF BY
           =====                   =======         ======
           save_to_flash_memory    44C6            exec_upper_page80H_memory (memory_access)
               calls direct
               CSTACK = 00000000 ( 00000004 )
    -------------------------------------------------------------------------
<CODE> 3 (was CODE)
  Relative segment, address: CODE 4636 - 4B03 (0x4ce bytes), align: 1
  Segment part 100.
           ENTRY                   ADDRESS         REF BY
           =====                   =======         ======
           load_init_data_from_flash
                                   4636            sfp28_state_initialize (state_transition)
               calls direct
               CSTACK = 00000000 ( 00000008 )
    -------------------------------------------------------------------------
<CODE> 3 (was CODE)
  Relative segment, address: CODE 4B04 - 4B93 (0x90 bytes), align: 1
  Segment part 102.           Intra module refs:   save_to_flash_memory
           ENTRY                   ADDRESS         REF BY
           =====                   =======         ======
           store_data_to_flash     4B04 
               calls direct
               CSTACK = 00000000 ( 00000002 )
    -------------------------------------------------------------------------
<CODE> 3 (was CODE)
  Relative segment, address: CODE 4B94 - 4F79 (0x3e6 bytes), align: 1
  Segment part 103.           Intra module refs:   save_to_flash_memory
           ENTRY                   ADDRESS         REF BY
           =====                   =======         ======
           factory_reset_eeprom_info
                                   4B94 
               calls direct
               CSTACK = 00000000 ( 00000004 )
    -------------------------------------------------------------------------
<CODE> 3 (was CODE)
  Relative segment, address: CODE 4F7A - 5147 (0x1ce bytes), align: 1
  Segment part 104.
           ENTRY                   ADDRESS         REF BY
           =====                   =======         ======
           rx_cdr_init             4F7A            cdr_pmic_ch_control_reinit (tosa_control)
                                                   cdr_power_management_init (tosa_control)
               calls direct
               CSTACK = 00000000 ( 00000006 )
    -------------------------------------------------------------------------
<CODE> 3 (was CODE)
  Relative segment, address: CODE 5148 - 5395 (0x24e bytes), align: 1
  Segment part 105.           Intra module refs:   initialize_variables
           ENTRY                   ADDRESS         REF BY
           =====                   =======         ======
           rx_cdr_init_from_flash
                                   5148            cdr_pmic_ch_control_reinit (tosa_control)
               calls direct
               CSTACK = 00000000 ( 0000001A )
    -------------------------------------------------------------------------
<CODE> 3 (was CODE)
  Relative segment, address: CODE 5396 - 541F (0x8a bytes), align: 1
  Segment part 107.
           ENTRY                   ADDRESS         REF BY
           =====                   =======         ======
           rx_cdr_forced_mute_enable
                                   5396            PLA_Soft_RX_LOS_Control (state_transition)
               calls direct
               CSTACK = 00000000 ( 00000006 )
    -------------------------------------------------------------------------
<CODE> 3 (was CODE)
  Relative segment, address: CODE 5420 - 54F9 (0xda bytes), align: 1
  Segment part 108.
           ENTRY                   ADDRESS         REF BY
           =====                   =======         ======
           initialize_variables    5420            Initialization (initialization)
               calls direct
               CSTACK = 00000000 ( 00000004 )
    -------------------------------------------------------------------------
<CODE> 3 (was CODE)
  Relative segment, address: CODE 54FA - 55DD (0xe4 bytes), align: 1
  Segment part 109.           Intra module refs:   factory_reset_eeprom_info
                                                   initialize_variables
           ENTRY                   ADDRESS         REF BY
           =====                   =======         ======
           restore_memory_from_flash_all
                                   54FA 
               calls direct
               CSTACK = 00000000 ( 00000002 )
    -------------------------------------------------------------------------
<CODE> 3 (was CODE)
  Relative segment, address: CODE 55DE - 560B (0x2e bytes), align: 1
  Segment part 112.           Intra module refs:   factory_reset_for_tx_rx_cdr
           ENTRY                   ADDRESS         REF BY
           =====                   =======         ======
           save_memory_to_flash_tx_rx_cdr
                                   55DE 
               calls direct
               CSTACK = 00000000 ( 00000002 )
    -------------------------------------------------------------------------
<CODE> 3 (was CODE)
  Relative segment, address: CODE 560C - 56B3 (0xa8 bytes), align: 1
  Segment part 113.           Intra module refs:   factory_reset_eeprom_info
           ENTRY                   ADDRESS         REF BY
           =====                   =======         ======
           factory_reset_for_tx_rx_cdr
                                   560C 
               calls direct
               CSTACK = 00000000 ( 00000002 )
    -------------------------------------------------------------------------
<CODE> 3 (was CODE)
  Relative segment, address: CODE 8840 - 89C5 (0x186 bytes), align: 1
  Segment part 114.
           ENTRY                   ADDRESS         REF BY
           =====                   =======         ======
           APD_Process             8840            ProcessTemperature (ddm)
               calls direct
               CSTACK = 00000000 ( 00000006 )

    *************************************************************************

  FILE NAME : D:\Projects\Coset\Project_SKT_SFP28_T_2020\3.SW\FW\SFP28_ER_V1_DML_APD\Debug\Obj\memory_access.r66
  PROGRAM MODULE, NAME : memory_access

  SEGMENTS IN THE MODULE
  ======================
DATA16_SFR
  Relative segment, address: IDATA 0190 - 0190 (0x1 bytes), align: 0
  Segment part 3. ROOT 
           ENTRY                   ADDRESS         REF BY
           =====                   =======         ======
           DCDC_SEL                0190 
    -------------------------------------------------------------------------
DATA16_C
  Relative segment, address: DATA 8120 - 8139 (0x1a bytes), align: 1
  Segment part 59.            Intra module refs:   tx_input_equalization
    -------------------------------------------------------------------------
DATA16_Z
  Relative segment, address: DATA 09CC - 09CF (0x4 bytes), align: 0
  Segment part 23.            Intra module refs:   ProcessReceivedI2CData
    -------------------------------------------------------------------------
DATA16_Z
  Relative segment, address: DATA 09D0 - 0AD3 (0x104 bytes), align: 0
  Segment part 24.            Intra module refs:   ProcessReceivedI2CData
           ENTRY                   ADDRESS         REF BY
           =====                   =======         ======
           twsiSlaveBuf            09D0            I2C_Slave_Stop (i2cslave)
                                                   Segment part 35 (i2cslave)
    -------------------------------------------------------------------------
<CODE> 3 (was CODE)
  Relative segment, address: CODE 8E48 - 8F37 (0xf0 bytes), align: 1
  Segment part 25.
           ENTRY                   ADDRESS         REF BY
           =====                   =======         ======
           Memory_Init             8E48            Initialization (initialization)
               calls direct
               CSTACK = 00000000 ( 00000002 )
    -------------------------------------------------------------------------
<CODE> 3 (was CODE)
  Relative segment, address: CODE 015A - 019F (0x46 bytes), align: 1
  Segment part 26.            Intra module refs:   exec_upper_page2_memory
                                                   exec_upper_page81H_memory
           ENTRY                   ADDRESS         REF BY
           =====                   =======         ======
           SW_Delay                015A            APD_Init (board)
                                                   Segment part 50 (board)
                                                   cdr_pmic_ch_control_reinit (tosa_control)
                                                   cdr_power_management_init (tosa_control)
                                                   factory_reset_eeprom_info (mcu_convert)
                                                   high_power_up_action (state_transition)
                                                   initialize_variables (mcu_convert)
               CSTACK = 00000000 ( 00000002 )
    -------------------------------------------------------------------------
<CODE> 3 (was CODE)
  Relative segment, address: CODE 01A0 - 06FB (0x55c bytes), align: 1
  Segment part 27.            Intra module refs:   ProcessReceivedI2CData
           ENTRY                   ADDRESS         REF BY
           =====                   =======         ======
           I2C_Slave_Memory_Map_Write
                                   01A0 
               calls direct
               CSTACK = 00000000 ( 00000008 )
    -------------------------------------------------------------------------
<CODE> 3 (was CODE)
  Relative segment, address: CODE 06FC - 0787 (0x8c bytes), align: 1
  Segment part 28.            Intra module refs:   I2C_Slave_Memory_Map_Write
           ENTRY                   ADDRESS         REF BY
           =====                   =======         ======
           insert_write_entry      06FC 
    -------------------------------------------------------------------------
<CODE> 3 (was CODE)
  Relative segment, address: CODE 0788 - 08E1 (0x15a bytes), align: 1
  Segment part 29.            Intra module refs:   polled_write_entry
           ENTRY                   ADDRESS         REF BY
           =====                   =======         ======
           get_reg_memory          0788 
    -------------------------------------------------------------------------
<CODE> 3 (was CODE)
  Relative segment, address: CODE 08E2 - 0AA7 (0x1c6 bytes), align: 1
  Segment part 30.
           ENTRY                   ADDRESS         REF BY
           =====                   =======         ======
           polled_write_entry      08E2            MasterI2CArbitration (board)
               calls direct
               CSTACK = 00000000 ( 0000000A )
    -------------------------------------------------------------------------
<CODE> 3 (was CODE)
  Relative segment, address: CODE 0AA8 - 0B3D (0x96 bytes), align: 1
  Segment part 31.            Intra module refs:   polled_write_entry
           ENTRY                   ADDRESS         REF BY
           =====                   =======         ======
           exec_write_entry        0AA8 
               calls direct
               CSTACK = 00000000 ( 00000002 )
    -------------------------------------------------------------------------
<CODE> 3 (was CODE)
  Relative segment, address: CODE 0B3E - 0BAD (0x70 bytes), align: 1
  Segment part 32.            Intra module refs:   check_password_control
           ENTRY                   ADDRESS         REF BY
           =====                   =======         ======
           __swap_bytes_to_long    0B3E 
               CSTACK = 00000000 ( 00000008 )
    -------------------------------------------------------------------------
<CODE> 3 (was CODE)
  Relative segment, address: CODE 0BAE - 0C1D (0x70 bytes), align: 1
  Segment part 33.            Intra module refs:   exec_lower_page_memory
                                                   exec_upper_page81H_memory
           ENTRY                   ADDRESS         REF BY
           =====                   =======         ======
           __swap_bytes_to_float   0BAE            load_init_data_from_flash (mcu_convert)
               CSTACK = 00000000 ( 00000008 )
    -------------------------------------------------------------------------
<CODE> 3 (was CODE)
  Relative segment, address: CODE 0C1E - 0E05 (0x1e8 bytes), align: 1
  Segment part 34.            Intra module refs:   exec_lower_page_memory
           ENTRY                   ADDRESS         REF BY
           =====                   =======         ======
           check_password_control
                                   0C1E 
               calls direct
               CSTACK = 00000000 ( 00000004 )
    -------------------------------------------------------------------------
<CODE> 3 (was CODE)
  Relative segment, address: CODE 0E06 - 1143 (0x33e bytes), align: 1
  Segment part 35.            Intra module refs:   exec_write_entry
           ENTRY                   ADDRESS         REF BY
           =====                   =======         ======
           exec_lower_page_memory
                                   0E06 
               calls direct
               CSTACK = 00000000 ( 00000006 )
    -------------------------------------------------------------------------
<CODE> 3 (was CODE)
  Relative segment, address: CODE 1144 - 1145 (0x2 bytes), align: 1
  Segment part 36.            Intra module refs:   exec_write_entry
           ENTRY                   ADDRESS         REF BY
           =====                   =======         ======
           exec_upper_page0_memory
                                   1144 
    -------------------------------------------------------------------------
<CODE> 3 (was CODE)
  Relative segment, address: CODE 1146 - 1147 (0x2 bytes), align: 1
  Segment part 37.            Intra module refs:   exec_write_entry
           ENTRY                   ADDRESS         REF BY
           =====                   =======         ======
           exec_upper_page1_memory
                                   1146 
    -------------------------------------------------------------------------
<CODE> 3 (was CODE)
  Relative segment, address: CODE 1148 - 1601 (0x4ba bytes), align: 1
  Segment part 38.            Intra module refs:   exec_write_entry
           ENTRY                   ADDRESS         REF BY
           =====                   =======         ======
           exec_upper_page2_memory
                                   1148 
               calls direct
               CSTACK = 00000000 ( 00000016 )
    -------------------------------------------------------------------------
<CODE> 3 (was CODE)
  Relative segment, address: CODE 1602 - 161D (0x1c bytes), align: 1
  Segment part 39.            Intra module refs:   exec_write_entry
           ENTRY                   ADDRESS         REF BY
           =====                   =======         ======
           exec_upper_page82H_memory
                                   1602 
               calls direct
               CSTACK = 00000000 ( 00000002 )
    -------------------------------------------------------------------------
<CODE> 3 (was CODE)
  Relative segment, address: CODE 161E - 1639 (0x1c bytes), align: 1
  Segment part 40.            Intra module refs:   exec_write_entry
           ENTRY                   ADDRESS         REF BY
           =====                   =======         ======
           exec_upper_page83H_memory
                                   161E 
               calls direct
               CSTACK = 00000000 ( 00000002 )
    -------------------------------------------------------------------------
<CODE> 3 (was CODE)
  Relative segment, address: CODE 163A - 1655 (0x1c bytes), align: 1
  Segment part 41.            Intra module refs:   exec_write_entry
           ENTRY                   ADDRESS         REF BY
           =====                   =======         ======
           exec_upper_page84H_memory
                                   163A 
               calls direct
               CSTACK = 00000000 ( 00000002 )
    -------------------------------------------------------------------------
<CODE> 3 (was CODE)
  Relative segment, address: CODE 1656 - 1CDB (0x686 bytes), align: 1
  Segment part 42.            Intra module refs:   exec_write_entry
           ENTRY                   ADDRESS         REF BY
           =====                   =======         ======
           exec_upper_page80H_memory
                                   1656 
               calls direct
               CSTACK = 00000000 ( 0000000E )
    -------------------------------------------------------------------------
<CODE> 3 (was CODE)
  Relative segment, address: CODE 1CDC - 2429 (0x74e bytes), align: 1
  Segment part 43.            Intra module refs:   exec_write_entry
           ENTRY                   ADDRESS         REF BY
           =====                   =======         ======
           exec_upper_page81H_memory
                                   1CDC 
               calls direct
               CSTACK = 00000000 ( 00000008 )
    -------------------------------------------------------------------------
<CODE> 3 (was CODE)
  Relative segment, address: CODE 242A - 242B (0x2 bytes), align: 1
  Segment part 44.            Intra module refs:   exec_write_entry
           ENTRY                   ADDRESS         REF BY
           =====                   =======         ======
           exec_non_standard_A0_memory
                                   242A 
    -------------------------------------------------------------------------
<CODE> 3 (was CODE)
  Relative segment, address: CODE 242C - 248B (0x60 bytes), align: 1
  Segment part 45.            Intra module refs:   Segment part 59
                                                   exec_lower_page_memory
           ENTRY                   ADDRESS         REF BY
           =====                   =======         ======
           tx_input_equalization   242C 
               calls direct
               CSTACK = 00000000 ( 00000002 )
    -------------------------------------------------------------------------
<CODE> 3 (was CODE)
  Relative segment, address: CODE 248C - 251B (0x90 bytes), align: 1
  Segment part 46.            Intra module refs:   exec_lower_page_memory
           ENTRY                   ADDRESS         REF BY
           =====                   =======         ======
           rx_output_deemphasis    248C 
               calls direct
               CSTACK = 00000000 ( 00000008 )
    -------------------------------------------------------------------------
<CODE> 3 (was CODE)
  Relative segment, address: CODE 251C - 2671 (0x156 bytes), align: 1
  Segment part 48.
           ENTRY                   ADDRESS         REF BY
           =====                   =======         ======
           update_msa_control_regs_from_tx_cdr
                                   251C            high_power_up_action (state_transition)
               CSTACK = 00000000 ( 00000004 )
    -------------------------------------------------------------------------
<CODE> 3 (was CODE)
  Relative segment, address: CODE 2672 - 27BD (0x14c bytes), align: 1
  Segment part 49.
           ENTRY                   ADDRESS         REF BY
           =====                   =======         ======
           update_msa_control_regs_from_rx_cdr
                                   2672            high_power_up_action (state_transition)
               CSTACK = 00000000 ( 00000004 )
    -------------------------------------------------------------------------
<CODE> 3 (was CODE)
  Relative segment, address: CODE 27BE - 2DB7 (0x5fa bytes), align: 1
  Segment part 50.
           ENTRY                   ADDRESS         REF BY
           =====                   =======         ======
           ProcessReceivedI2CData
                                   27BE            I2C_Slave_Stop (i2cslave)
               calls direct
               CSTACK = 00000000 ( 00000012 )
    -------------------------------------------------------------------------
CDATA16_C
  Relative segment, address: CODE 0120 - 0139 (0x1a bytes), align: 1
  Segment part 61.            Intra module refs:   Segment part 59

    *************************************************************************

  FILE NAME : D:\Projects\Coset\Project_SKT_SFP28_T_2020\3.SW\FW\SFP28_ER_V1_DML_APD\Debug\Obj\monitor.r66
  PROGRAM MODULE, NAME : monitor

  SEGMENTS IN THE MODULE
  ======================
<CODE> 3 (was CODE)
  Relative segment, address: CODE 9E2A - 9E3D (0x14 bytes), align: 1
  Segment part 4.
           ENTRY                   ADDRESS         REF BY
           =====                   =======         ======
           TXDStatus               9E2A            Segment part 50 (board)
                                                   check_tx_dis (state_transition)
                                                   ddm_mon_tx_bias (state_transition)
                                                   ddm_mon_tx_power (state_transition)

    *************************************************************************

  FILE NAME : D:\Projects\Coset\Project_SKT_SFP28_T_2020\3.SW\FW\SFP28_ER_V1_DML_APD\Debug\Obj\pwm.r66
    *************************************************************************

  FILE NAME : D:\Projects\Coset\Project_SKT_SFP28_T_2020\3.SW\FW\SFP28_ER_V1_DML_APD\Debug\Obj\state_transition.r66
  PROGRAM MODULE, NAME : state_transition

  SEGMENTS IN THE MODULE
  ======================
<CODE> 3 (was CODE)
  Relative segment, address: CODE 2DB8 - 2E6D (0xb6 bytes), align: 1
  Segment part 22.
           ENTRY                   ADDRESS         REF BY
           =====                   =======         ======
           state_transition_control
                                   2DB8            main (main)
               calls direct
               CSTACK = 00000000 ( 00000002 )
    -------------------------------------------------------------------------
<CODE> 3 (was CODE)
  Relative segment, address: CODE 2E6E - 2EDF (0x72 bytes), align: 1
  Segment part 27.            Intra module refs:   sfp28_state_fault
                                                   sfp28_state_high_power_down
                                                   sfp28_state_high_power_up
                                                   sfp28_state_initialize
                                                   sfp28_state_low_power
                                                   sfp28_state_ready
                                                   sfp28_state_reset
                                                   sfp28_state_tx_off
                                                   sfp28_state_tx_turn_off
                                                   sfp28_state_tx_turn_on
           ENTRY                   ADDRESS         REF BY
           =====                   =======         ======
           update_sfp28_state      2E6E 
    -------------------------------------------------------------------------
<CODE> 3 (was CODE)
  Relative segment, address: CODE 2EE0 - 2EED (0xe bytes), align: 1
  Segment part 28.            Intra module refs:   sfp28_state_high_power_down
                                                   sfp28_state_high_power_up
                                                   sfp28_state_initialize
                                                   sfp28_state_reset
                                                   turn_off_tx_network_lanes
           ENTRY                   ADDRESS         REF BY
           =====                   =======         ======
           set_on_tx_dis_manually
                                   2EE0 
               calls direct
               CSTACK = 00000000 ( 00000002 )
    -------------------------------------------------------------------------
<CODE> 3 (was CODE)
  Relative segment, address: CODE 2EEE - 2F0D (0x20 bytes), align: 1
  Segment part 30.            Intra module refs:   forced_TX_DISABLE_OFF
                                                   forced_TX_DISABLE_ON
           ENTRY                   ADDRESS         REF BY
           =====                   =======         ======
           set_tx_dis_at_network_lanes_in_isr
                                   2EEE 
               calls direct
               CSTACK = 00000000 ( 00000002 )
    -------------------------------------------------------------------------
<CODE> 3 (was CODE)
  Relative segment, address: CODE 2F0E - 2F2D (0x20 bytes), align: 1
  Segment part 31.            Intra module refs:   turn_on_tx_network_lanes
           ENTRY                   ADDRESS         REF BY
           =====                   =======         ======
           set_tx_dis_at_network_lanes
                                   2F0E 
               calls direct
               CSTACK = 00000000 ( 00000002 )
    -------------------------------------------------------------------------
<CODE> 3 (was CODE)
  Relative segment, address: CODE 2F2E - 2F53 (0x26 bytes), align: 1
  Segment part 32.
           ENTRY                   ADDRESS         REF BY
           =====                   =======         ======
           forced_TX_DISABLE_ON    2F2E            I2C_Slave_Memory_Map_Write (memory_access)
               calls direct
               CSTACK = 00000000 ( 00000002 )
    -------------------------------------------------------------------------
<CODE> 3 (was CODE)
  Relative segment, address: CODE 2F54 - 2F79 (0x26 bytes), align: 1
  Segment part 33.
           ENTRY                   ADDRESS         REF BY
           =====                   =======         ======
           forced_TX_DISABLE_OFF   2F54            I2C_Slave_Memory_Map_Write (memory_access)
               calls direct
               CSTACK = 00000000 ( 00000002 )
    -------------------------------------------------------------------------
<CODE> 3 (was CODE)
  Relative segment, address: CODE 2F7A - 2F9D (0x24 bytes), align: 1
  Segment part 34.            Intra module refs:   sfp28_state_ready
                                                   sfp28_state_tx_turn_on
           ENTRY                   ADDRESS         REF BY
           =====                   =======         ======
           turn_on_tx_network_lanes
                                   2F7A 
               calls direct
               CSTACK = 00000000 ( 00000002 )
    -------------------------------------------------------------------------
<CODE> 3 (was CODE)
  Relative segment, address: CODE 2F9E - 2FA9 (0xc bytes), align: 1
  Segment part 35.            Intra module refs:   sfp28_state_tx_turn_off
           ENTRY                   ADDRESS         REF BY
           =====                   =======         ======
           turn_off_tx_network_lanes
                                   2F9E 
               calls direct
               CSTACK = 00000000 ( 00000002 )
    -------------------------------------------------------------------------
<CODE> 3 (was CODE)
  Relative segment, address: CODE 2FAA - 2FED (0x44 bytes), align: 1
  Segment part 36.            Intra module refs:   state_transition_control
           ENTRY                   ADDRESS         REF BY
           =====                   =======         ======
           sfp28_state_reset       2FAA 
               calls direct
               CSTACK = 00000000 ( 00000002 )
    -------------------------------------------------------------------------
<CODE> 3 (was CODE)
  Relative segment, address: CODE 2FEE - 3009 (0x1c bytes), align: 1
  Segment part 37.            Intra module refs:   state_transition_control
           ENTRY                   ADDRESS         REF BY
           =====                   =======         ======
           sfp28_state_initialize
                                   2FEE 
               calls direct
               CSTACK = 00000000 ( 00000002 )
    -------------------------------------------------------------------------
<CODE> 3 (was CODE)
  Relative segment, address: CODE 300A - 3041 (0x38 bytes), align: 1
  Segment part 38.            Intra module refs:   state_transition_control
           ENTRY                   ADDRESS         REF BY
           =====                   =======         ======
           sfp28_state_low_power   300A 
               calls direct
               CSTACK = 00000000 ( 00000002 )
    -------------------------------------------------------------------------
<CODE> 3 (was CODE)
  Relative segment, address: CODE 3042 - 3095 (0x54 bytes), align: 1
  Segment part 39.            Intra module refs:   state_transition_control
           ENTRY                   ADDRESS         REF BY
           =====                   =======         ======
           sfp28_state_high_power_up
                                   3042 
               calls direct
               CSTACK = 00000000 ( 00000002 )
    -------------------------------------------------------------------------
<CODE> 3 (was CODE)
  Relative segment, address: CODE 3096 - 30F9 (0x64 bytes), align: 1
  Segment part 40.            Intra module refs:   state_transition_control
           ENTRY                   ADDRESS         REF BY
           =====                   =======         ======
           sfp28_state_high_power_down
                                   3096 
               calls direct
               CSTACK = 00000000 ( 00000002 )
    -------------------------------------------------------------------------
<CODE> 3 (was CODE)
  Relative segment, address: CODE 30FA - 3149 (0x50 bytes), align: 1
  Segment part 41.            Intra module refs:   state_transition_control
           ENTRY                   ADDRESS         REF BY
           =====                   =======         ======
           sfp28_state_tx_off      30FA 
               calls direct
               CSTACK = 00000000 ( 00000002 )
    -------------------------------------------------------------------------
<CODE> 3 (was CODE)
  Relative segment, address: CODE 314A - 316B (0x22 bytes), align: 1
  Segment part 42.            Intra module refs:   state_transition_control
           ENTRY                   ADDRESS         REF BY
           =====                   =======         ======
           sfp28_state_tx_turn_on
                                   314A 
               calls direct
               CSTACK = 00000000 ( 00000002 )
    -------------------------------------------------------------------------
<CODE> 3 (was CODE)
  Relative segment, address: CODE 316C - 31B9 (0x4e bytes), align: 1
  Segment part 43.            Intra module refs:   state_transition_control
           ENTRY                   ADDRESS         REF BY
           =====                   =======         ======
           sfp28_state_tx_turn_off
                                   316C 
               calls direct
               CSTACK = 00000000 ( 00000002 )
    -------------------------------------------------------------------------
<CODE> 3 (was CODE)
  Relative segment, address: CODE 31BA - 3213 (0x5a bytes), align: 1
  Segment part 44.            Intra module refs:   state_transition_control
           ENTRY                   ADDRESS         REF BY
           =====                   =======         ======
           sfp28_state_ready       31BA 
               calls direct
               CSTACK = 00000000 ( 00000002 )
    -------------------------------------------------------------------------
<CODE> 3 (was CODE)
  Relative segment, address: CODE 3214 - 3277 (0x64 bytes), align: 1
  Segment part 45.            Intra module refs:   state_transition_control
           ENTRY                   ADDRESS         REF BY
           =====                   =======         ======
           sfp28_state_fault       3214 
               calls direct
               CSTACK = 00000000 ( 00000002 )
    -------------------------------------------------------------------------
<CODE> 3 (was CODE)
  Relative segment, address: CODE 3278 - 33D9 (0x162 bytes), align: 1
  Segment part 46.            Intra module refs:   sfp28_state_high_power_up
           ENTRY                   ADDRESS         REF BY
           =====                   =======         ======
           high_power_up_action    3278 
               calls direct
               CSTACK = 00000000 ( 00000008 )
    -------------------------------------------------------------------------
<CODE> 3 (was CODE)
  Relative segment, address: CODE 33DA - 33DB (0x2 bytes), align: 1
  Segment part 47.            Intra module refs:   sfp28_state_fault
                                                   sfp28_state_high_power_down
           ENTRY                   ADDRESS         REF BY
           =====                   =======         ======
           high_power_down_action
                                   33DA 
    -------------------------------------------------------------------------
<CODE> 3 (was CODE)
  Relative segment, address: CODE 33DC - 35D5 (0x1fa bytes), align: 1
  Segment part 48.
           ENTRY                   ADDRESS         REF BY
           =====                   =======         ======
           cal_Temp_Slope_Offset   33DC            exec_upper_page80H_memory (memory_access)
                                                   load_init_data_from_flash (mcu_convert)
               CSTACK = 00000000 ( 00000018 )
    -------------------------------------------------------------------------
<CODE> 3 (was CODE)
  Relative segment, address: CODE 35D6 - 36D7 (0x102 bytes), align: 1
  Segment part 49.            Intra module refs:   MonitoringDataCon
           ENTRY                   ADDRESS         REF BY
           =====                   =======         ======
           ddm_mon_tx_power        35D6 
               calls direct
               CSTACK = 00000000 ( 0000000C )
    -------------------------------------------------------------------------
<CODE> 3 (was CODE)
  Relative segment, address: CODE 36D8 - 39C5 (0x2ee bytes), align: 1
  Segment part 50.            Intra module refs:   MonitoringDataCon
           ENTRY                   ADDRESS         REF BY
           =====                   =======         ======
           ddm_mon_rx_power        36D8 
               calls direct
               CSTACK = 00000000 ( 00000020 )
    -------------------------------------------------------------------------
<CODE> 3 (was CODE)
  Relative segment, address: CODE 39C6 - 39ED (0x28 bytes), align: 1
  Segment part 51.            Intra module refs:   ddm_mon_rx_power
           ENTRY                   ADDRESS         REF BY
           =====                   =======         ======
           PLA_Soft_RX_LOS_Control
                                   39C6 
               calls direct
               CSTACK = 00000000 ( 00000002 )
    -------------------------------------------------------------------------
<CODE> 3 (was CODE)
  Relative segment, address: CODE 39EE - 3A03 (0x16 bytes), align: 1
  Segment part 52.            Intra module refs:   update_faws_summary_registers
           ENTRY                   ADDRESS         REF BY
           =====                   =======         ======
           PLA_RX_LOS_Status       39EE 
    -------------------------------------------------------------------------
<CODE> 3 (was CODE)
  Relative segment, address: CODE 3A04 - 3A19 (0x16 bytes), align: 1
  Segment part 53.            Intra module refs:   update_faws_summary_registers
           ENTRY                   ADDRESS         REF BY
           =====                   =======         ======
           PLA_Tx_Fault_Status     3A04 
    -------------------------------------------------------------------------
<CODE> 3 (was CODE)
  Relative segment, address: CODE 3A1A - 3A2F (0x16 bytes), align: 1
  Segment part 54.            Intra module refs:   detect_cdr_alarm
           ENTRY                   ADDRESS         REF BY
           =====                   =======         ======
           PLA_Soft_Tx_Fault_Control
                                   3A1A            Clear_TXF_Status (alarm_warning)
                                                   initialize_variables (mcu_convert)
    -------------------------------------------------------------------------
<CODE> 3 (was CODE)
  Relative segment, address: CODE 3A30 - 3A45 (0x16 bytes), align: 1
  Segment part 55.
           ENTRY                   ADDRESS         REF BY
           =====                   =======         ======
           PLA_Soft_Tx_Fault_Control_at_TxTune
                                   3A30            exec_upper_page2_memory (memory_access)
    -------------------------------------------------------------------------
<CODE> 3 (was CODE)
  Relative segment, address: CODE 3A46 - 3A9B (0x56 bytes), align: 1
  Segment part 56.            Intra module refs:   MonitoringDataCon
           ENTRY                   ADDRESS         REF BY
           =====                   =======         ======
           ddm_mon_tx_bias         3A46 
               calls direct
               CSTACK = 00000000 ( 00000006 )
    -------------------------------------------------------------------------
<CODE> 3 (was CODE)
  Relative segment, address: CODE 3A9C - 3AB7 (0x1c bytes), align: 1
  Segment part 60.            Intra module refs:   sfp28_state_fault
                                                   sfp28_state_ready
                                                   sfp28_state_tx_off
           ENTRY                   ADDRESS         REF BY
           =====                   =======         ======
           MonitoringDataCon       3A9C 
               calls direct
               CSTACK = 00000000 ( 00000002 )
    -------------------------------------------------------------------------
<CODE> 3 (was CODE)
  Relative segment, address: CODE 3AB8 - 3AEF (0x38 bytes), align: 1
  Segment part 62.            Intra module refs:   MonitoringDataCon
           ENTRY                   ADDRESS         REF BY
           =====                   =======         ======
           detect_cdr_alarm        3AB8 
               calls direct
               CSTACK = 00000000 ( 00000002 )
    -------------------------------------------------------------------------
<CODE> 3 (was CODE)
  Relative segment, address: CODE 3AF0 - 3BCD (0xde bytes), align: 1
  Segment part 63.            Intra module refs:   detect_channel_thr_alarm
                                                   detect_module_thr_alarm
           ENTRY                   ADDRESS         REF BY
           =====                   =======         ======
           check_thr_alarm         3AF0 
    -------------------------------------------------------------------------
<CODE> 3 (was CODE)
  Relative segment, address: CODE 3BCE - 3E05 (0x238 bytes), align: 1
  Segment part 64.            Intra module refs:   MonitoringDataCon
           ENTRY                   ADDRESS         REF BY
           =====                   =======         ======
           detect_module_thr_alarm
                                   3BCE 
               calls direct
               CSTACK = 00000000 ( 00000006 )
    -------------------------------------------------------------------------
<CODE> 3 (was CODE)
  Relative segment, address: CODE 3E06 - 4153 (0x34e bytes), align: 1
  Segment part 65.            Intra module refs:   MonitoringDataCon
           ENTRY                   ADDRESS         REF BY
           =====                   =======         ======
           detect_channel_thr_alarm
                                   3E06 
               calls direct
               CSTACK = 00000000 ( 00000006 )
    -------------------------------------------------------------------------
<CODE> 3 (was CODE)
  Relative segment, address: CODE 4154 - 420D (0xba bytes), align: 1
  Segment part 67.
           ENTRY                   ADDRESS         REF BY
           =====                   =======         ======
           update_faws_summary_registers
                                   4154            main (main)
               calls direct
               CSTACK = 00000000 ( 00000006 )
    -------------------------------------------------------------------------
<CODE> 3 (was CODE)
  Relative segment, address: CODE 420E - 42C9 (0xbc bytes), align: 1
  Segment part 68.
           ENTRY                   ADDRESS         REF BY
           =====                   =======         ======
           update_rate_select_operation
                                   420E            I2C_Slave_Memory_Map_Write (memory_access)
                                                   Segment part 50 (board)
                                                   initialize_variables (mcu_convert)
               calls direct
               CSTACK = 00000000 ( 00000002 )
    -------------------------------------------------------------------------
<CODE> 3 (was CODE)
  Relative segment, address: CODE 42CA - 42D1 (0x8 bytes), align: 1
  Segment part 72.            Intra module refs:   sfp28_state_fault
                                                   sfp28_state_high_power_down
                                                   sfp28_state_high_power_up
                                                   sfp28_state_low_power
                                                   sfp28_state_ready
                                                   sfp28_state_reset
                                                   sfp28_state_tx_off
                                                   sfp28_state_tx_turn_off
           ENTRY                   ADDRESS         REF BY
           =====                   =======         ======
           check_mod_rsts          42CA 
    -------------------------------------------------------------------------
<CODE> 3 (was CODE)
  Relative segment, address: CODE 42D2 - 42D9 (0x8 bytes), align: 1
  Segment part 73.            Intra module refs:   sfp28_state_high_power_down
                                                   sfp28_state_high_power_up
                                                   sfp28_state_low_power
                                                   sfp28_state_ready
                                                   sfp28_state_tx_off
                                                   sfp28_state_tx_turn_off
           ENTRY                   ADDRESS         REF BY
           =====                   =======         ======
           check_mod_lopwrs        42D2 
    -------------------------------------------------------------------------
<CODE> 3 (was CODE)
  Relative segment, address: CODE 42DA - 4315 (0x3c bytes), align: 1
  Segment part 74.            Intra module refs:   sfp28_state_ready
                                                   sfp28_state_tx_off
                                                   sfp28_state_tx_turn_off
           ENTRY                   ADDRESS         REF BY
           =====                   =======         ======
           check_tx_dis            42DA 
               calls direct
               CSTACK = 00000000 ( 00000002 )

    *************************************************************************

  FILE NAME : D:\Projects\Coset\Project_SKT_SFP28_T_2020\3.SW\FW\SFP28_ER_V1_DML_APD\Debug\Obj\tec.r66
  PROGRAM MODULE, NAME : tec

  SEGMENTS IN THE MODULE
  ======================
DATA16_SFR
  Relative segment, address: IDATA 0042 - 0043 (0x2 bytes), align: 0
  Segment part 1. ROOT 
           ENTRY                   ADDRESS         REF BY
           =====                   =======         ======
           TECD1                   0042 
    -------------------------------------------------------------------------
DATA16_SFR
  Relative segment, address: IDATA 0044 - 0045 (0x2 bytes), align: 0
  Segment part 2. ROOT 
           ENTRY                   ADDRESS         REF BY
           =====                   =======         ======
           TECD2                   0044 
    -------------------------------------------------------------------------
DATA16_SFR
  Relative segment, address: IDATA 005C - 005D (0x2 bytes), align: 0
  Segment part 4. ROOT 
           ENTRY                   ADDRESS         REF BY
           =====                   =======         ======
           _A_TECCN2               005C 
    -------------------------------------------------------------------------
<CODE> 3 (was CODE)
  Relative segment, address: CODE 9D36 - 9D55 (0x20 bytes), align: 1
  Segment part 6.
           ENTRY                   ADDRESS         REF BY
           =====                   =======         ======
           ConfigTec1              9D36            TECC_Init (board)
                                                   TEC_Control_APC_3 (tosa_control)
                                                   exec_upper_page2_memory (memory_access)
                                                   exec_upper_page81H_memory (memory_access)
    -------------------------------------------------------------------------
<CODE> 3 (was CODE)
  Relative segment, address: CODE 9C62 - 9C85 (0x24 bytes), align: 1
  Segment part 8.
           ENTRY                   ADDRESS         REF BY
           =====                   =======         ======
           GetTec1                 9C62            DDM_Read (ddm)

    *************************************************************************

  FILE NAME : D:\Projects\Coset\Project_SKT_SFP28_T_2020\3.SW\FW\SFP28_ER_V1_DML_APD\Debug\Obj\timer.r66
  PROGRAM MODULE, NAME : timer

  SEGMENTS IN THE MODULE
  ======================
DATA16_SFR
  Relative segment, address: IDATA 000E - 000F (0x2 bytes), align: 0
  Segment part 1. ROOT 
           ENTRY                   ADDRESS         REF BY
           =====                   =======         ======
           _A_TBCN1                000E 
    -------------------------------------------------------------------------
DATA16_SFR
  Relative segment, address: IDATA 0016 - 0017 (0x2 bytes), align: 0
  Segment part 2. ROOT 
           ENTRY                   ADDRESS         REF BY
           =====                   =======         ======
           TBC1                    0016 

    *************************************************************************

  FILE NAME : D:\Projects\Coset\Project_SKT_SFP28_T_2020\3.SW\FW\SFP28_ER_V1_DML_APD\Debug\Obj\tosa_control.r66
  PROGRAM MODULE, NAME : tosa_control

  SEGMENTS IN THE MODULE
  ======================
DATA16_I
  Relative segment, address: DATA 0002 - 0021 (0x20 bytes), align: 1
  Segment part 16.            Intra module refs:   wavelength_info_set
           ENTRY                   ADDRESS         REF BY
           =====                   =======         ======
           wavelength_info         0002 
    -------------------------------------------------------------------------
<CODE> 3 (was CODE)
  Relative segment, address: CODE 9DB2 - 9DCB (0x1a bytes), align: 1
  Segment part 18.
           ENTRY                   ADDRESS         REF BY
           =====                   =======         ======
           Ld_Ch_seq_init          9DB2            initialize_variables (mcu_convert)
    -------------------------------------------------------------------------
<CODE> 3 (was CODE)
  Relative segment, address: CODE 9E94 - 9E9D (0xa bytes), align: 1
  Segment part 19.
           ENTRY                   ADDRESS         REF BY
           =====                   =======         ======
           LdInit                  9E94            sfp28_state_reset (state_transition)
    -------------------------------------------------------------------------
<CODE> 3 (was CODE)
  Relative segment, address: CODE 56B4 - 577D (0xca bytes), align: 1
  Segment part 20.            Intra module refs:   LdControl
           ENTRY                   ADDRESS         REF BY
           =====                   =======         ======
           LdControl_manually      56B4            exec_upper_page80H_memory (memory_access)
               calls direct
               CSTACK = 00000000 ( 00000008 )
    -------------------------------------------------------------------------
<CODE> 3 (was CODE)
  Relative segment, address: CODE 577E - 581B (0x9e bytes), align: 1
  Segment part 21.            Intra module refs:   LdInit_forced_on_first
           ENTRY                   ADDRESS         REF BY
           =====                   =======         ======
           LdControl               577E            exec_upper_page2_memory (memory_access)
                                                   sfp28_state_ready (state_transition)
               calls direct
               CSTACK = 00000000 ( 00000004 )
    -------------------------------------------------------------------------
<CODE> 3 (was CODE)
  Relative segment, address: CODE 581C - 5B57 (0x33c bytes), align: 1
  Segment part 22.            Intra module refs:   LdControl
           ENTRY                   ADDRESS         REF BY
           =====                   =======         ======
           LdControl_APC_3         581C 
               calls direct
               CSTACK = 00000000 ( 0000000C )
    -------------------------------------------------------------------------
<CODE> 3 (was CODE)
  Relative segment, address: CODE 5B58 - 5C39 (0xe2 bytes), align: 1
  Segment part 23.            Intra module refs:   LdControl
           ENTRY                   ADDRESS         REF BY
           =====                   =======         ======
           ModBiasControl_manually
                                   5B58            exec_upper_page80H_memory (memory_access)
               calls direct
               CSTACK = 00000000 ( 00000008 )
    -------------------------------------------------------------------------
<CODE> 3 (was CODE)
  Relative segment, address: CODE 5C3A - 5F35 (0x2fc bytes), align: 1
  Segment part 24.            Intra module refs:   LdControl
           ENTRY                   ADDRESS         REF BY
           =====                   =======         ======
           ModBiasControl_APC_3    5C3A 
               calls direct
               CSTACK = 00000000 ( 0000000C )
    -------------------------------------------------------------------------
<CODE> 3 (was CODE)
  Relative segment, address: CODE 5F36 - 6017 (0xe2 bytes), align: 1
  Segment part 25.            Intra module refs:   LdControl
           ENTRY                   ADDRESS         REF BY
           =====                   =======         ======
           XconBiasControl         5F36            exec_upper_page80H_memory (memory_access)
               calls direct
               CSTACK = 00000000 ( 00000008 )
    -------------------------------------------------------------------------
<CODE> 3 (was CODE)
  Relative segment, address: CODE 6018 - 605B (0x44 bytes), align: 1
  Segment part 27.
           ENTRY                   ADDRESS         REF BY
           =====                   =======         ======
           LdInit_forced_on_first
                                   6018            sfp28_state_tx_turn_on (state_transition)
               calls direct
               CSTACK = 00000000 ( 00000002 )
    -------------------------------------------------------------------------
<CODE> 3 (was CODE)
  Relative segment, address: CODE 605C - 63FF (0x3a4 bytes), align: 1
  Segment part 28.            Intra module refs:   LdControl
           ENTRY                   ADDRESS         REF BY
           =====                   =======         ======
           TEC_Control_APC_3       605C            high_power_up_action (state_transition)
               calls direct
               CSTACK = 00000000 ( 0000000E )
    -------------------------------------------------------------------------
<CODE> 3 (was CODE)
  Relative segment, address: CODE 6400 - 6653 (0x254 bytes), align: 1
  Segment part 29.            Intra module refs:   LdControl
                                                   LdControl_APC_3
                                                   LdControl_manually
                                                   ModBiasControl_APC_3
                                                   ModBiasControl_manually
                                                   XconBiasControl
           ENTRY                   ADDRESS         REF BY
           =====                   =======         ======
           LD_Drive_Set            6400 
               calls direct
               CSTACK = 00000000 ( 00000006 )
    -------------------------------------------------------------------------
<CODE> 3 (was CODE)
  Relative segment, address: CODE 8F38 - 901D (0xe6 bytes), align: 1
  Segment part 31.
           ENTRY                   ADDRESS         REF BY
           =====                   =======         ======
           LD_Drive_Get            8F38            ddm_mon_tx_bias (state_transition)
               calls direct
               CSTACK = 00000000 ( 00000006 )
    -------------------------------------------------------------------------
<CODE> 3 (was CODE)
  Relative segment, address: CODE 8D50 - 8E47 (0xf8 bytes), align: 1
  Segment part 35.
           ENTRY                   ADDRESS         REF BY
           =====                   =======         ======
           polled_tx_rx_combo_cdr_reg_info
                                   8D50            exec_upper_page80H_memory (memory_access)
                                                   factory_reset_for_tx_rx_cdr (mcu_convert)
                                                   initialize_variables (mcu_convert)
               calls direct
               CSTACK = 00000000 ( 00000004 )
    -------------------------------------------------------------------------
<CODE> 3 (was CODE)
  Relative segment, address: CODE 6654 - 693B (0x2e8 bytes), align: 1
  Segment part 36.            Intra module refs:   cdr_pmic_ch_control_reinit
                                                   cdr_power_management_init
           ENTRY                   ADDRESS         REF BY
           =====                   =======         ======
           tx_cdr_init             6654 
               calls direct
               CSTACK = 00000000 ( 00000006 )
    -------------------------------------------------------------------------
<CODE> 3 (was CODE)
  Relative segment, address: CODE 693C - 6C4B (0x310 bytes), align: 1
  Segment part 37.            Intra module refs:   cdr_pmic_ch_control_reinit
           ENTRY                   ADDRESS         REF BY
           =====                   =======         ======
           tx_cdr_init_from_flash
                                   693C            initialize_variables (mcu_convert)
               calls direct
               CSTACK = 00000000 ( 0000001A )
    -------------------------------------------------------------------------
<CODE> 3 (was CODE)
  Relative segment, address: CODE 6C4C - 6FDF (0x394 bytes), align: 1
  Segment part 38.
           ENTRY                   ADDRESS         REF BY
           =====                   =======         ======
           cdr_power_management_init
                                   6C4C            high_power_up_action (state_transition)
               calls direct
               CSTACK = 00000000 ( 0000000A )
    -------------------------------------------------------------------------
<CODE> 3 (was CODE)
  Relative segment, address: CODE 6FE0 - 72FF (0x320 bytes), align: 1
  Segment part 39.            Intra module refs:   check_n_recover_cdr_fault_or_hw_reset
           ENTRY                   ADDRESS         REF BY
           =====                   =======         ======
           cdr_pmic_ch_control_reinit
                                   6FE0            exec_upper_page80H_memory (memory_access)
               calls direct
               CSTACK = 00000000 ( 0000000A )
    -------------------------------------------------------------------------
<CODE> 3 (was CODE)
  Relative segment, address: CODE 7300 - 735D (0x5e bytes), align: 1
  Segment part 40.
           ENTRY                   ADDRESS         REF BY
           =====                   =======         ======
           check_n_recover_cdr_fault_or_hw_reset
                                   7300            sfp28_state_ready (state_transition)
               calls direct
               CSTACK = 00000000 ( 00000004 )
    -------------------------------------------------------------------------
<CODE> 3 (was CODE)
  Relative segment, address: CODE 7946 - 7E21 (0x4dc bytes), align: 1
  Segment part 41.
           ENTRY                   ADDRESS         REF BY
           =====                   =======         ======
           rate_select_control_cdr
                                   7946            update_rate_select_operation (state_transition)
               calls direct
               CSTACK = 00000000 ( 00000006 )
    -------------------------------------------------------------------------
<CODE> 3 (was CODE)
  Relative segment, address: CODE 90EE - 91AD (0xc0 bytes), align: 1
  Segment part 42.
           ENTRY                   ADDRESS         REF BY
           =====                   =======         ======
           wavelength_info_set     90EE            exec_upper_page2_memory (memory_access)
                                                   initialize_variables (mcu_convert)
    -------------------------------------------------------------------------
DATA16_ID
  Relative segment, address: DATA 813A - 8159 (0x20 bytes), align: 1
  Segment part 17.            Intra module refs:   wavelength_info
    -------------------------------------------------------------------------
CDATA16_ID
  Relative segment, address: CODE 013A - 0159 (0x20 bytes), align: 1
  Segment part 43.            Intra module refs:   Segment part 17

    *************************************************************************

  FILE NAME : D:\Projects\Coset\Project_SKT_SFP28_T_2020\3.SW\FW\SFP28_ER_V1_DML_APD\Debug\Obj\twm.r66
  PROGRAM MODULE, NAME : twm

  SEGMENTS IN THE MODULE
  ======================
DATA16_SFR
  Relative segment, address: IDATA 014E - 014E (0x1 bytes), align: 0
  Segment part 5. ROOT 
           ENTRY                   ADDRESS         REF BY
           =====                   =======         ======
           DADDR                   014E 
    -------------------------------------------------------------------------
DATA16_SFR
  Relative segment, address: IDATA 015C - 015D (0x2 bytes), align: 0
  Segment part 6. ROOT 
           ENTRY                   ADDRESS         REF BY
           =====                   =======         ======
           _A_TWR                  015C 

    *************************************************************************

  FILE NAME : C:\Program Files (x86)\IAR Systems\Embedded Workbench 4.6\MAXQ\LIB\CLIB\clmaxq20mslc.r66
  LIBRARY MODULE, NAME : __CSTARTUP__

  SEGMENTS IN THE MODULE
  ======================
DATA16_C
  Relative segment, address: DATA 813A, align: 0
  Segment part 2. ROOT 
    -------------------------------------------------------------------------
DATA16_ID
  Relative segment, address: DATA 815A, align: 0
  Segment part 3. ROOT 
    -------------------------------------------------------------------------
DATA8_ID
  Relative segment, address: DATA 813A, align: 0
  Segment part 4. ROOT 
    -------------------------------------------------------------------------
CHECKSUM
  Relative segment, address: DATA 815A, align: 0
  Segment part 5. ROOT 
    -------------------------------------------------------------------------
CONST
  Relative segment, address: DATA 815A, align: 0
  Segment part 6. ROOT 
    -------------------------------------------------------------------------
CDATA16_C
  Relative segment, address: CODE 013A, align: 0
  Segment part 7. ROOT 
    -------------------------------------------------------------------------
CDATA16_ID
  Relative segment, address: CODE 015A, align: 0
  Segment part 8. ROOT 
    -------------------------------------------------------------------------
CDATA8_ID
  Relative segment, address: CODE 015A, align: 0
  Segment part 9. ROOT 
    -------------------------------------------------------------------------
CCHECKSUM
  Relative segment, address: CODE 015A, align: 0
  Segment part 10. ROOT 
    -------------------------------------------------------------------------
CCONST
  Relative segment, address: CODE 015A, align: 0
  Segment part 11. ROOT       Intra module refs:   __program_start
    -------------------------------------------------------------------------
RESET
  Relative segment, address: CODE 0000 - 0003 (0x4 bytes), align: 0
  Segment part 12. ROOT 
           ENTRY                   ADDRESS         REF BY
           =====                   =======         ======
           __program_start         0000            Absolute parts (?ABS_ENTRY_MOD)
               calls direct
    -------------------------------------------------------------------------
CDATA16_C
  Relative segment, address: CODE 013A, align: 0
  Segment part 13. ROOT       Intra module refs:   Segment part 2
    -------------------------------------------------------------------------
CDATA16_ID
  Relative segment, address: CODE 015A, align: 0
  Segment part 14. ROOT       Intra module refs:   Segment part 3
    -------------------------------------------------------------------------
CDATA8_ID
  Relative segment, address: CODE 015A, align: 0
  Segment part 15. ROOT       Intra module refs:   Segment part 4
    -------------------------------------------------------------------------
CCHECKSUM
  Relative segment, address: CODE 015A, align: 0
  Segment part 16. ROOT       Intra module refs:   Segment part 5
    -------------------------------------------------------------------------
CCONST
  Relative segment, address: CODE 015A, align: 0
  Segment part 17. ROOT       Intra module refs:   Segment part 6

    -------------------------------------------------------------------------
  LIBRARY MODULE, NAME : CSTARTUP

  SEGMENTS IN THE MODULE
  ======================
RCODE
  Relative segment, address: CODE 0096, align: 1
  Segment part 1.
           ENTRY                   ADDRESS         REF BY
           =====                   =======         ======
           __CSTARTUP              0096            __program_start (__CSTARTUP__)

    -------------------------------------------------------------------------
  LIBRARY MODULE, NAME : INIT_IV

  SEGMENTS IN THE MODULE
  ======================
RCODE
  Relative segment, address: CODE 0096 - 0099 (0x4 bytes), align: 1
  Segment part 1.
           ENTRY                   ADDRESS         REF BY
           =====                   =======         ======
           ?init_isr               0096            ?isr (__INTERRUPTS)

    -------------------------------------------------------------------------
  LIBRARY MODULE, NAME : CALL_INIT

  SEGMENTS IN THE MODULE
  ======================
RCODE
  Relative segment, address: CODE 009A - 00A9 (0x10 bytes), align: 1
  Segment part 2.
           ENTRY                   ADDRESS         REF BY
           =====                   =======         ======
           ?cstart_call_low_level_init
                                   009A            __low_level_init (lowinit)

    -------------------------------------------------------------------------
  LIBRARY MODULE, NAME : init_dpc

  SEGMENTS IN THE MODULE
  ======================
RCODE
  Relative segment, address: CODE 00AA - 00AB (0x2 bytes), align: 1
  Segment part 1.
           ENTRY                   ADDRESS         REF BY
           =====                   =======         ======
           ?init_dpc               00AA            ?cstart_init_copy (?cstart_init_copy)
                                                   ?cstart_init_zero (?cstart_init_zero)

    -------------------------------------------------------------------------
  LIBRARY MODULE, NAME : ?cstart_init_zero

  SEGMENTS IN THE MODULE
  ======================
DATA16_Z
  Relative segment, address: DATA 098E, align: 1
  Segment part 1. ROOT 
    -------------------------------------------------------------------------
RCODE
  Relative segment, address: CODE 00AC - 00B9 (0xe bytes), align: 1
  Segment part 2.
           ENTRY                   ADDRESS         REF BY
           =====                   =======         ======
           ?cstart_init_zero       00AC            ActiveSlave (i2cslave)
                                                   LdBiasDa (mcu_convert)
                                                   LdBiasSetFlag (mcu_convert)
                                                   LdBiasSetFlag2 (mcu_convert)
                                                   LdControlMode (mcu_convert)
                                                   MasterI2CArbitration::s_unI2c_2_clear (board)
                                                   ModBiasDa (mcu_convert)
                                                   ModBiasSet (mcu_convert)
                                                   TEC_Control_Da (mcu_convert)
                                                   XconBiasDa (mcu_convert)
                                                   XconBiasSet (mcu_convert)
                                                   already_act_reset_flag (mcu_convert)
                                                   bset_dac_ch_no (mcu_convert)
                                                   curr_channel_no (mcu_convert)
                                                   current_password (mcu_convert)
                                                   ext_calib_Temp_Offset (mcu_convert)
                                                   ext_calib_Temp_Slope (mcu_convert)
                                                   ext_calib_Tx_I_Offset (mcu_convert)
                                                   ext_calib_Tx_I_Slope (mcu_convert)
                                                   ext_calib_Vcc_Offset (mcu_convert)
                                                   ext_calib_Vcc_Slope (mcu_convert)
                                                   ext_calib_rxPower_coeff_0 (mcu_convert)
                                                   ext_calib_rxPower_coeff_1 (mcu_convert)
                                                   ext_calib_rxPower_coeff_2 (mcu_convert)
                                                   ext_calib_rxPower_coeff_3 (mcu_convert)
                                                   ext_calib_rxPower_coeff_4 (mcu_convert)
                                                   ext_calib_txPower_coeff_0 (mcu_convert)
                                                   ext_calib_txPower_coeff_1 (mcu_convert)
                                                   fixed_side_password (mcu_convert)
                                                   forcedLdBiasSet (mcu_convert)
                                                   high_power_up_action_flag (mcu_convert)
                                                   interrupt_count (i2cm)
                                                   itemp_ht_offset (mcu_convert)
                                                   itemp_ht_slope (mcu_convert)
                                                   itemp_lt_offset (mcu_convert)
                                                   itemp_lt_slope (mcu_convert)
                                                   main_idx (mcu_convert)
                                                   main_sigNo (mcu_convert)
                                                   page_password_enable (mcu_convert)
                                                   page_vendor_control (mcu_convert)
                                                   prevLdBiasDa (mcu_convert)
                                                   prevModBiasDa (mcu_convert)
                                                   prevXconBiasDa (mcu_convert)
                                                   prev_TEC_Control_Da (mcu_convert)
                                                   read_i2c_count (mcu_convert)
                                                   rxPower_coeff_0 (mcu_convert)
                                                   rxPower_coeff_1 (mcu_convert)
                                                   rxPower_coeff_2 (mcu_convert)
                                                   rxPower_coeff_3 (mcu_convert)
                                                   rxPower_coeff_4 (mcu_convert)
                                                   rx_i2c_master_data (mcu_convert)
                                                   sAdc_offset (ddm)
                                                   sTemp_offset (ddm)
                                                   s_ucPassword_entry (memory_access)
                                                   s_unWaiting_I2C (board)
                                                   sfp28_module_debug_run_state (mcu_convert)
                                                   sfp28_module_state (mcu_convert)
                                                   twsiSlaveBuf (memory_access)
                                                   txPower_coeff_0 (mcu_convert)
                                                   txPower_coeff_1 (mcu_convert)
                                                   tx_dis_flag_after_isr (mcu_convert)
                                                   tx_dis_flag_before_isr (mcu_convert)
                                                   tx_i2c_master_data (mcu_convert)
                                                   tx_rx_complete (i2cm)
                                                   unAdc_scale (ddm)
                                                   unTemp_scale (ddm)
                                                   vendor_specific_pin_control_config (mcu_convert)
                                                   write_i2c_count (mcu_convert)

    -------------------------------------------------------------------------
  LIBRARY MODULE, NAME : ?cstart_init_copy

  SEGMENTS IN THE MODULE
  ======================
DATA16_I
  Relative segment, address: DATA 0022, align: 1
  Segment part 1. ROOT 
    -------------------------------------------------------------------------
DATA16_ID
  Relative segment, address: DATA 815A, align: 0
  Segment part 2. ROOT 
    -------------------------------------------------------------------------
RCODE
  Relative segment, address: CODE 00BA - 00CF (0x16 bytes), align: 1
  Segment part 3.
           ENTRY                   ADDRESS         REF BY
           =====                   =======         ======
           ?cstart_init_copy       00BA            wavelength_info (tosa_control)
    -------------------------------------------------------------------------
CDATA16_ID
  Relative segment, address: CODE 015A, align: 0
  Segment part 4. ROOT        Intra module refs:   Segment part 2

    -------------------------------------------------------------------------
  LIBRARY MODULE, NAME : __MAIN_CALL__

  SEGMENTS IN THE MODULE
  ======================
RCODE
  Relative segment, address: CODE 00D0 - 00DD (0xe bytes), align: 1
  Segment part 2.
           ENTRY                   ADDRESS         REF BY
           =====                   =======         ======
           __MAIN_CALL             00D0            ?cstart_call_low_level_init (CALL_INIT)
                                                   __program_start (__CSTARTUP__)

    -------------------------------------------------------------------------
  LIBRARY MODULE, NAME : __C_EXIT__

  SEGMENTS IN THE MODULE
  ======================
RCODE
  Relative segment, address: CODE 00DE - 00DF (0x2 bytes), align: 1
  Segment part 1.
           ENTRY                   ADDRESS         REF BY
           =====                   =======         ======
           ?C_EXIT                 00DE            __MAIN_CALL (__MAIN_CALL__)
                                                   exit (exit)
           __exit                  00DE 

    -------------------------------------------------------------------------
  LIBRARY MODULE, NAME : fcn_epilogue

  SEGMENTS IN THE MODULE
  ======================
<CODE> 3 (was CODE)
  Relative segment, address: CODE 9C38 - 9C3B (0x4 bytes), align: 1
  Segment part 17.
           ENTRY                   ADDRESS         REF BY
           =====                   =======         ======
           ?epilogue_15            9C38            ProcessReceivedI2CData (memory_access)
                                                   cal_Temp_Slope_Offset (state_transition)
                                                   ddm_mon_rx_power (state_transition)
                                                   exec_upper_page2_memory (memory_access)
    -------------------------------------------------------------------------
<CODE> 3 (was CODE)
  Relative segment, address: CODE 9C3C - 9C3F (0x4 bytes), align: 1
  Segment part 18.            Intra module refs:   ?epilogue_15
           ENTRY                   ADDRESS         REF BY
           =====                   =======         ======
           ?epilogue_14            9C3C 
    -------------------------------------------------------------------------
<CODE> 3 (was CODE)
  Relative segment, address: CODE 9C40 - 9C43 (0x4 bytes), align: 1
  Segment part 19.            Intra module refs:   ?epilogue_14
           ENTRY                   ADDRESS         REF BY
           =====                   =======         ======
           ?epilogue_13            9C40            TEC_Control_APC_3 (tosa_control)
    -------------------------------------------------------------------------
<CODE> 3 (was CODE)
  Relative segment, address: CODE 9C44 - 9C47 (0x4 bytes), align: 1
  Segment part 20.            Intra module refs:   ?epilogue_13
           ENTRY                   ADDRESS         REF BY
           =====                   =======         ======
           ?epilogue_12            9C44            LdControl_APC_3 (tosa_control)
                                                   ModBiasControl_APC_3 (tosa_control)
                                                   confirm_write_master_gpio_multiple_bytes (i2c_master_gpio)
                                                   ddm_mon_tx_power (state_transition)
    -------------------------------------------------------------------------
<CODE> 3 (was CODE)
  Relative segment, address: CODE 9C48 - 9C4B (0x4 bytes), align: 1
  Segment part 21.            Intra module refs:   ?epilogue_12
           ENTRY                   ADDRESS         REF BY
           =====                   =======         ======
           ?epilogue_11            9C48            CopySramToFlash (flash)
                                                   TempCalibration_adjusted (ddm)
                                                   cdr_pmic_ch_control_reinit (tosa_control)
                                                   cdr_power_management_init (tosa_control)
                                                   exec_upper_page80H_memory (memory_access)
                                                   polled_write_entry (memory_access)
    -------------------------------------------------------------------------
<CODE> 3 (was CODE)
  Relative segment, address: CODE 9C4C - 9C4F (0x4 bytes), align: 1
  Segment part 22.            Intra module refs:   ?epilogue_11
           ENTRY                   ADDRESS         REF BY
           =====                   =======         ======
           ?epilogue_10            9C4C            DDM_Read (ddm)
                                                   I2C_Slave_Memory_Map_Write (memory_access)
                                                   LdControl_manually (tosa_control)
                                                   ModBiasControl_manually (tosa_control)
                                                   ProcessTemperature (ddm)
                                                   XconBiasControl (tosa_control)
                                                   high_power_up_action (state_transition)
                                                   rx_cdr_init_from_flash (mcu_convert)
                                                   rx_output_deemphasis (memory_access)
                                                   tx_cdr_init_from_flash (tosa_control)
    -------------------------------------------------------------------------
<CODE> 3 (was CODE)
  Relative segment, address: CODE 9C50 - 9C53 (0x4 bytes), align: 1
  Segment part 23.            Intra module refs:   ?epilogue_10
           ENTRY                   ADDRESS         REF BY
           =====                   =======         ======
           ?epilogue_9             9C50            APD_Process (mcu_convert)
                                                   LD_Drive_Get (tosa_control)
                                                   LD_Drive_Set (tosa_control)
                                                   ddm_mon_tx_bias (state_transition)
                                                   detect_channel_thr_alarm (state_transition)
                                                   detect_module_thr_alarm (state_transition)
                                                   rate_select_control_cdr (tosa_control)
                                                   rx_cdr_forced_mute_enable (mcu_convert)
                                                   rx_cdr_init (mcu_convert)
                                                   tx_cdr_init (tosa_control)
                                                   update_faws_summary_registers (state_transition)
    -------------------------------------------------------------------------
<CODE> 3 (was CODE)
  Relative segment, address: CODE 9C54 - 9C61 (0xe bytes), align: 1
  Segment part 24.            Intra module refs:   ?epilogue_9
           ENTRY                   ADDRESS         REF BY
           =====                   =======         ======
           ?epilogue_8             9C54            APD_Init (board)
                                                   I2CM_ReadNBytes (i2cm)
                                                   I2CM_WriteNBytes (i2cm)
                                                   LdControl (tosa_control)
                                                   TECC_Init (board)
                                                   check_n_recover_cdr_fault_or_hw_reset (tosa_control)
                                                   check_password_control (memory_access)
                                                   exec_upper_page81H_memory (memory_access)
                                                   factory_reset_eeprom_info (mcu_convert)
                                                   initialize_variables (mcu_convert)
                                                   load_init_data_from_flash (mcu_convert)
                                                   polled_tx_rx_combo_cdr_reg_info (tosa_control)
                                                   restore_from_flash_memory (mcu_convert)
                                                   save_to_flash_memory (mcu_convert)
           ?epilogue_A             9C58            SW_Delay (memory_access)
                                                   __swap_bytes_to_float (memory_access)
                                                   __swap_bytes_to_long (memory_access)
                                                   exec_lower_page_memory (memory_access)
                                                   read_master_gpio_single_byte (i2c_master_gpio)
                                                   update_msa_control_regs_from_rx_cdr (memory_access)
                                                   update_msa_control_regs_from_tx_cdr (memory_access)
                                                   write_master_gpio_single_byte (i2c_master_gpio)

    -------------------------------------------------------------------------
  LIBRARY MODULE, NAME : ?INTERRUPT_SAVE_PTR

  SEGMENTS IN THE MODULE
  ======================
RCODE
  Relative segment, address: CODE 00E0, align: 1
  Segment part 1.
           ENTRY                   ADDRESS         REF BY
           =====                   =======         ======
           ?INTERRUPT_SAVE_PTR     00E0            Segment part 21 (i2cm)
                                                   Segment part 35 (i2cslave)
                                                   Segment part 50 (board)
    -------------------------------------------------------------------------
RCODE
  Relative segment, address: CODE 00E0 - 00E1 (0x2 bytes), align: 1
  Segment part 2.             Intra module refs:   ?REQ_SAVE_BP
                                                   Segment part 4
    -------------------------------------------------------------------------
RCODE
  Relative segment, address: CODE 00E2 - 00E5 (0x4 bytes), align: 1
  Segment part 3.
           ENTRY                   ADDRESS         REF BY
           =====                   =======         ======
           ?REQ_SAVE_BP            00E2            Segment part 35 (i2cslave)
                                                   Segment part 50 (board)
    -------------------------------------------------------------------------
RCODE
  Relative segment, address: CODE 00E6 - 00E7 (0x2 bytes), align: 1
  Segment part 4.
           ENTRY                   ADDRESS         REF BY
           =====                   =======         ======
           ?REQ_SAVE_DP0           00E6            Segment part 21 (i2cm)
                                                   Segment part 35 (i2cslave)
                                                   Segment part 50 (board)
           ?REQ_SAVE_DP1           00E6 
    -------------------------------------------------------------------------
RCODE
  Relative segment, address: CODE 00E8 - 00E9 (0x2 bytes), align: 1
  Segment part 5.             Intra module refs:   Segment part 6
                                                   Segment part 7
    -------------------------------------------------------------------------
RCODE
  Relative segment, address: CODE 00EA - 00ED (0x4 bytes), align: 1
  Segment part 6.             Intra module refs:   ?REQ_SAVE_BP
    -------------------------------------------------------------------------
RCODE
  Relative segment, address: CODE 00EE - 00EF (0x2 bytes), align: 1
  Segment part 7.             Intra module refs:   Segment part 4
    -------------------------------------------------------------------------
RCODE
  Relative segment, address: CODE 00F0 - 00F1 (0x2 bytes), align: 1
  Segment part 8.             Intra module refs:   ?INTERRUPT_SAVE_PTR

    -------------------------------------------------------------------------
  LIBRARY MODULE, NAME : ?INTERRUPT_RESTORE_PTR

  SEGMENTS IN THE MODULE
  ======================
RCODE
  Relative segment, address: CODE 00F2, align: 1
  Segment part 1.
           ENTRY                   ADDRESS         REF BY
           =====                   =======         ======
           ?INTERRUPT_RESTORE_PTR
                                   00F2            Segment part 21 (i2cm)
                                                   Segment part 35 (i2cslave)
                                                   Segment part 50 (board)
    -------------------------------------------------------------------------
RCODE
  Relative segment, address: CODE 00F2 - 00F3 (0x2 bytes), align: 1
  Segment part 2.             Intra module refs:   Segment part 3
                                                   Segment part 4
    -------------------------------------------------------------------------
RCODE
  Relative segment, address: CODE 00F4 - 00F5 (0x2 bytes), align: 1
  Segment part 3.             Intra module refs:   ?RESTORE_DP0
    -------------------------------------------------------------------------
RCODE
  Relative segment, address: CODE 00F6 - 00FD (0x8 bytes), align: 1
  Segment part 4.             Intra module refs:   ?RESTORE_BP
    -------------------------------------------------------------------------
RCODE
  Relative segment, address: CODE 00FE - 00FF (0x2 bytes), align: 1
  Segment part 5.             Intra module refs:   ?RESTORE_BP
                                                   ?RESTORE_DP0
    -------------------------------------------------------------------------
RCODE
  Relative segment, address: CODE 0100 - 0101 (0x2 bytes), align: 1
  Segment part 6.
           ENTRY                   ADDRESS         REF BY
           =====                   =======         ======
           ?RESTORE_DP0            0100            Segment part 4 (?INTERRUPT_SAVE_PTR)
    -------------------------------------------------------------------------
RCODE
  Relative segment, address: CODE 0102 - 0109 (0x8 bytes), align: 1
  Segment part 7.
           ENTRY                   ADDRESS         REF BY
           =====                   =======         ======
           ?RESTORE_BP             0102            ?REQ_SAVE_BP (?INTERRUPT_SAVE_PTR)
    -------------------------------------------------------------------------
RCODE
  Relative segment, address: CODE 010A - 010D (0x4 bytes), align: 1
  Segment part 8.             Intra module refs:   ?INTERRUPT_RESTORE_PTR

    -------------------------------------------------------------------------
  LIBRARY MODULE, NAME : exit

  SEGMENTS IN THE MODULE
  ======================
__aseg
  Relative segment, address: CODE 0000, align: 0
  Segment part 1. ROOT 
    -------------------------------------------------------------------------
<CODE> 3 (was CODE)
  Relative segment, address: CODE 9EAE - 9EB3 (0x6 bytes), align: 1
  Segment part 3.
           ENTRY                   ADDRESS         REF BY
           =====                   =======         ======
           exit                    9EAE            __MAIN_CALL (__MAIN_CALL__)
               CSTACK = 00000002 ( 00000000 )

    -------------------------------------------------------------------------
  LIBRARY MODULE, NAME : UL_SHL_L03

  SEGMENTS IN THE MODULE
  ======================
<CODE> 3 (was CODE)
  Relative segment, address: CODE 9E74 - 9E7F (0xc bytes), align: 1
  Segment part 1.
           ENTRY                   ADDRESS         REF BY
           =====                   =======         ======
           ?UL_SHL_L03             9E74            TempCalibration (ddm)

    -------------------------------------------------------------------------
  LIBRARY MODULE, NAME : SL_SHR_L03

  SEGMENTS IN THE MODULE
  ======================
<CODE> 3 (was CODE)
  Relative segment, address: CODE 9E5C - 9E67 (0xc bytes), align: 1
  Segment part 1.
           ENTRY                   ADDRESS         REF BY
           =====                   =======         ======
           ?SL_SHR_L03             9E5C            TempCalibration (ddm)

    -------------------------------------------------------------------------
  LIBRARY MODULE, NAME : UL_SHR_L03

  SEGMENTS IN THE MODULE
  ======================
<CODE> 3 (was CODE)
  Relative segment, address: CODE 9E68 - 9E73 (0xc bytes), align: 1
  Segment part 1.
           ENTRY                   ADDRESS         REF BY
           =====                   =======         ======
           ?UL_SHR_L03             9E68            ConvertVccScale (ddm)

    -------------------------------------------------------------------------
  LIBRARY MODULE, NAME : F_ADD_L04

  SEGMENTS IN THE MODULE
  ======================
__aseg
  Relative segment, address: CODE 0000, align: 0
  Segment part 1. ROOT 
    -------------------------------------------------------------------------
<CODE> 3 (was CODE)
  Relative segment, address: CODE 8C3E - 8D4F (0x112 bytes), align: 1
  Segment part 2.
           ENTRY                   ADDRESS         REF BY
           =====                   =======         ======
           ?F_ADD_L04              8C54            TempCalibration_adjusted (ddm)
                                                   ddm_mon_rx_power (state_transition)
                                                   ddm_mon_tx_power (state_transition)
           ?F_SUB_L04              8C3E            ?F_CMP_L04 (FLOAT_CMP)
                                                   cal_Temp_Slope_Offset (state_transition)

    -------------------------------------------------------------------------
  LIBRARY MODULE, NAME : Q20_DivideRaw

  SEGMENTS IN THE MODULE
  ======================
__aseg
  Relative segment, address: CODE 0000, align: 0
  Segment part 1. ROOT 
    -------------------------------------------------------------------------
<CODE> 3 (was CODE)
  Relative segment, address: CODE 97F4 - 9835 (0x42 bytes), align: 1
  Segment part 2.
           ENTRY                   ADDRESS         REF BY
           =====                   =======         ======
           Q20_DivideRaw_add       980A 
           Q20_DivideRaw_sub       97F4            ?UL_DIV_L03 (UL_DIV_L03)

    -------------------------------------------------------------------------
  LIBRARY MODULE, NAME : FLOAT_CMP

  SEGMENTS IN THE MODULE
  ======================
<CODE> 3 (was CODE)
  Relative segment, address: CODE 9D16 - 9D35 (0x20 bytes), align: 1
  Segment part 1.
           ENTRY                   ADDRESS         REF BY
           =====                   =======         ======
           ?F_CMP_L04              9D16            ddm_mon_rx_power (state_transition)
                                                   ddm_mon_tx_power (state_transition)

    -------------------------------------------------------------------------
  LIBRARY MODULE, NAME : FLOAT_F2L

  SEGMENTS IN THE MODULE
  ======================
<CODE> 3 (was CODE)
  Relative segment, address: CODE 9B0E - 9B43 (0x36 bytes), align: 1
  Segment part 1.
           ENTRY                   ADDRESS         REF BY
           =====                   =======         ======
           ?F_F2L_L04              9B0E            TempCalibration_adjusted (ddm)
                                                   ddm_mon_rx_power (state_transition)
           ?F_F2UL_L04             9B0E            ddm_mon_tx_power (state_transition)

    -------------------------------------------------------------------------
  LIBRARY MODULE, NAME : FLOAT_L2F

  SEGMENTS IN THE MODULE
  ======================
<CODE> 3 (was CODE)
  Relative segment, address: CODE 976C - 97B1 (0x46 bytes), align: 1
  Segment part 1.
           ENTRY                   ADDRESS         REF BY
           =====                   =======         ======
           ?F_SL2F_L04             976C            TempCalibration_adjusted (ddm)
                                                   cal_Temp_Slope_Offset (state_transition)
           ?F_UL2F_L04             977C            ddm_mon_rx_power (state_transition)
                                                   ddm_mon_tx_power (state_transition)
                                                   exec_lower_page_memory (memory_access)

    -------------------------------------------------------------------------
  LIBRARY MODULE, NAME : Q20_Twos_Complement32

  SEGMENTS IN THE MODULE
  ======================
<CODE> 3 (was CODE)
  Relative segment, address: CODE 9E4E - 9E5B (0xe bytes), align: 1
  Segment part 1.
           ENTRY                   ADDRESS         REF BY
           =====                   =======         ======
           Q20_Twos_Complement32   9E4E            Segment part 1 (FLOAT_L2F)

    -------------------------------------------------------------------------
  LIBRARY MODULE, NAME : Q20_Float_Is_Zero

  SEGMENTS IN THE MODULE
  ======================
<CODE> 3 (was CODE)
  Relative segment, address: CODE 9CCE - 9CF1 (0x24 bytes), align: 1
  Segment part 1.
           ENTRY                   ADDRESS         REF BY
           =====                   =======         ======
           Q20_Float_Is_Zero       9CCE            ?F_CMP_L04 (FLOAT_CMP)

    -------------------------------------------------------------------------
  LIBRARY MODULE, NAME : Q20_SZFloat

  SEGMENTS IN THE MODULE
  ======================
<CODE> 3 (was CODE)
  Relative segment, address: CODE 9E9E - 9EA5 (0x8 bytes), align: 1
  Segment part 1.
           ENTRY                   ADDRESS         REF BY
           =====                   =======         ======
           Q20_Set_Zero_Float      9E9E            Segment part 1 (FLOAT_F2L)
                                                   Segment part 1 (FLOAT_L2F)

    -------------------------------------------------------------------------
  LIBRARY MODULE, NAME : Q20_Set_NaN_Float

  SEGMENTS IN THE MODULE
  ======================
<CODE> 3 (was CODE)
  Relative segment, address: CODE 9E80 - 9E89 (0xa bytes), align: 1
  Segment part 1.
           ENTRY                   ADDRESS         REF BY
           =====                   =======         ======
           Q20_Set_NaN_Float       9E80            Q20_Pack_Float (Q20_Pack_Float)

    -------------------------------------------------------------------------
  LIBRARY MODULE, NAME : Q20_UPF

  SEGMENTS IN THE MODULE
  ======================
<CODE> 3 (was CODE)
  Relative segment, address: CODE 94CC - 9539 (0x6e bytes), align: 1
  Segment part 1.
           ENTRY                   ADDRESS         REF BY
           =====                   =======         ======
           Q20_UnPack_Float        94CC            Segment part 1 (FLOAT_F2L)

    -------------------------------------------------------------------------
  LIBRARY MODULE, NAME : Q20_Pack_Float

  SEGMENTS IN THE MODULE
  ======================
<CODE> 3 (was CODE)
  Relative segment, address: CODE 9614 - 9679 (0x66 bytes), align: 1
  Segment part 1.
           ENTRY                   ADDRESS         REF BY
           =====                   =======         ======
           Q20_Pack_Float          9614            Segment part 1 (FLOAT_L2F)

    -------------------------------------------------------------------------
  LIBRARY MODULE, NAME : SS_DIV_L02

  SEGMENTS IN THE MODULE
  ======================
__aseg
  Relative segment, address: CODE 0000, align: 0
  Segment part 1. ROOT 
    -------------------------------------------------------------------------
<CODE> 3 (was CODE)
  Relative segment, address: CODE 9BDC - 9C09 (0x2e bytes), align: 1
  Segment part 2.
           ENTRY                   ADDRESS         REF BY
           =====                   =======         ======
           ?SS_DIV_L02             9BDC            I2C_Slave_Memory_Map_Write (memory_access)
                                                   LdControl_APC_3 (tosa_control)
                                                   ModBiasControl_APC_3 (tosa_control)
                                                   TEC_Control_APC_3 (tosa_control)

    -------------------------------------------------------------------------
  LIBRARY MODULE, NAME : US_DIV_L02

  SEGMENTS IN THE MODULE
  ======================
__aseg
  Relative segment, address: CODE 0000, align: 0
  Segment part 1. ROOT 
    -------------------------------------------------------------------------
<CODE> 3 (was CODE)
  Relative segment, address: CODE 99AC - 99E9 (0x3e bytes), align: 1
  Segment part 2.
           ENTRY                   ADDRESS         REF BY
           =====                   =======         ======
           ?US_DIV_L02             99AC            ?SS_DIV_L02 (SS_DIV_L02)
                                                   insert_write_entry (memory_access)
                                                   polled_write_entry (memory_access)

    -------------------------------------------------------------------------
  LIBRARY MODULE, NAME : SL_DIV_L03

  SEGMENTS IN THE MODULE
  ======================
__aseg
  Relative segment, address: CODE 0000, align: 0
  Segment part 1. ROOT 
    -------------------------------------------------------------------------
<CODE> 3 (was CODE)
  Relative segment, address: CODE 98F2 - 992F (0x3e bytes), align: 1
  Segment part 2.
           ENTRY                   ADDRESS         REF BY
           =====                   =======         ======
           ?SL_DIV_L03             98F2            TEC_Control_APC_3 (tosa_control)

    -------------------------------------------------------------------------
  LIBRARY MODULE, NAME : UL_DIV_L03

  SEGMENTS IN THE MODULE
  ======================
__aseg
  Relative segment, address: CODE 0000, align: 0
  Segment part 1. ROOT 
    -------------------------------------------------------------------------
<CODE> 1 (was CODE)
  Relative segment, address: CODE 0004 - 001D (0x1a bytes), align: 1
  Segment part 2.
           ENTRY                   ADDRESS         REF BY
           =====                   =======         ======
           ?UL_DIV_L03             0004            ?SL_DIV_L03 (SL_DIV_L03)

    -------------------------------------------------------------------------
  LIBRARY MODULE, NAME : ?MEMCPY

  SEGMENTS IN THE MODULE
  ======================
<CODE> 3 (was CODE)
  Relative segment, address: CODE 9CF2 - 9D15 (0x24 bytes), align: 1
  Segment part 2.
           ENTRY                   ADDRESS         REF BY
           =====                   =======         ======
           memcpy                  9CF2            ProcessReceivedI2CData (memory_access)

    -------------------------------------------------------------------------
  LIBRARY MODULE, NAME : ?MEMSET

  SEGMENTS IN THE MODULE
  ======================
<CODE> 3 (was CODE)
  Relative segment, address: CODE 9DCC - 9DE5 (0x1a bytes), align: 1
  Segment part 2.
           ENTRY                   ADDRESS         REF BY
           =====                   =======         ======
           memset                  9DCC            Memory_Init (memory_access)
                                                   check_password_control (memory_access)
                                                   factory_reset_eeprom_info (mcu_convert)
                                                   initialize_variables (mcu_convert)
                                                   rx_cdr_init_from_flash (mcu_convert)
                                                   tx_cdr_init (tosa_control)
                                                   tx_cdr_init_from_flash (tosa_control)




                ****************************************
                *                                      *
                *      SEGMENTS IN ADDRESS ORDER       *
                *                                      *
                ****************************************


SEGMENT              SPACE    START ADDRESS   END ADDRESS     SIZE  TYPE  ALIGN
=======              =====    =============   ===========     ====  ====  =====
__aseg               CODE                 0000                       rel    0
RESET                CODE              0000 - 0003               4   rel    0
<CODE> 1             CODE              0004 - 001F              1C   rel    1
DATA16_AC            CODE              0020 - 003F              20   rel    0
RCODE                CODE              0040 - 010D              CE   rel    1
<CODE> 2             CODE              010E - 011F              12   rel    1
CDATA16_C            CODE              0120 - 0139              1A   rel    1
CDATA16_ID           CODE              013A - 0159              20   rel    1
CDATA8_ID            CODE                 015A                       rel    0
CCONST               CODE                 015A                       rel    0
CCHECKSUM            CODE                 015A                       rel    0
<CODE> 3             CODE              015A - 9EB9            9D60   rel    1
DATA16_AC            CODE              EE00 - EE7F              80   rel    0
                     CODE              EF00 - EF7F              80 
                     CODE              F000 - F07F              80 
DATA16_I             DATA              0002 - 0021              20   rel    1
DATA16_AN            DATA              0080 - 0083               4   rel    0
                     DATA              0100 - 08FF             800 
DATA16_Z             DATA              0900 - 0AD3             1D4   rel    1
CSTACK               DATA              0FAF - 0FE0              32   dse    0
DATA16_C             DATA              8120 - 8139              1A   rel    1
DATA8_ID             DATA                 813A                       rel    0
DATA16_ID            DATA              813A - 8159              20   rel    1
CONST                DATA                 815A                       rel    0
CHECKSUM             DATA                 815A                       rel    0
DATA16_SFR           IDATA             0000 - 0009               A   rel    0
                     IDATA             000E - 0013               6 
                     IDATA             0016 - 0017               2 
                     IDATA             001A - 001D               4 
                     IDATA             0020 - 0029               A 
                     IDATA             002C - 0037               C 
                     IDATA             0042 - 0045               4 
                     IDATA             0052 - 0053               2 
                     IDATA             005A - 005D               4 
                     IDATA             006C - 006C               1 
                     IDATA             007C - 007D               2 
                     IDATA             0082 - 008F               E 
                     IDATA             0092 - 0093               2 
                     IDATA             0098 - 009B               4 
                     IDATA             00A0 - 00A5               6 
                     IDATA             00AA - 00AD               4 
                     IDATA             0100 - 0105               6 
                     IDATA             0110 - 0111               2 
                     IDATA             011C - 011D               2 
                     IDATA             012C - 0131               6 
                     IDATA             0134 - 0135               2 
                     IDATA             0140 - 0147               8 
                     IDATA             014A - 014E               5 
                     IDATA             0154 - 0157               4 
                     IDATA             015C - 015D               2 
                     IDATA             0160 - 0160               1 
                     IDATA             0162 - 0162               1 
                     IDATA             0164 - 0167               4 
                     IDATA             016E - 0171               4 
                     IDATA             0174 - 017B               8 
                     IDATA             0182 - 0187               6 
                     IDATA             018E - 0190               3 
                     IDATA             0194 - 0195               2 
                     IDATA             01BA - 01BC               3 
                     IDATA             01BE - 01BF               2 
                     IDATA             020A - 020A               1 
                     IDATA             020C - 020C               1 
DATA16_SFR           IDATA             021E - 021F               2   rel    0

                ****************************************
                *                                      *
                *        END OF CROSS REFERENCE        *
                *                                      *
                ****************************************

 40 598 bytes of CODE  memory (+     4 absolute )
    608 bytes of DATA  memory (+ 2 052 absolute )
      0 bytes of IDATA memory (+   162 absolute )
      0 bytes of CONST memory (+   416 absolute )

Errors: none
Warnings: none

